
obj/zond_cvc.elf:     file format elf32-littlearm

Sections:
Idx Name          Size      VMA       LMA       File off  Algn
  0 .text         00000ff0  00000000  00000000  00010000  2**3
                  CONTENTS, ALLOC, LOAD, READONLY, CODE
  1 .data         0000000c  40000000  00000ff0  00020000  2**1
                  CONTENTS, ALLOC, LOAD, DATA
  2 .bss          00000120  4000000c  00000ffc  0002000c  2**2
                  ALLOC
  3 .stack        00000a14  4000012c  0000111c  0002000c  2**2
                  ALLOC
  4 .usbram       00000000  7fd00000  7fd00000  0002000c  2**0
                  CONTENTS
  5 .etherram     00000000  7fe00000  7fe00000  0002000c  2**0
                  CONTENTS
  6 .batteryram   00000000  e0084000  e0084000  0002000c  2**0
                  CONTENTS
  7 .comment      00000070  00000000  00000000  0002000c  2**0
                  CONTENTS, READONLY
  8 .ARM.attributes 0000002e  00000000  00000000  0002007c  2**0
                  CONTENTS, READONLY
  9 .debug_aranges 00000130  00000000  00000000  000200b0  2**3
                  CONTENTS, READONLY, DEBUGGING
 10 .debug_info   0000122d  00000000  00000000  000201e0  2**0
                  CONTENTS, READONLY, DEBUGGING
 11 .debug_abbrev 00000708  00000000  00000000  0002140d  2**0
                  CONTENTS, READONLY, DEBUGGING
 12 .debug_line   000008bd  00000000  00000000  00021b15  2**0
                  CONTENTS, READONLY, DEBUGGING
 13 .debug_frame  00000334  00000000  00000000  000223d4  2**2
                  CONTENTS, READONLY, DEBUGGING
 14 .debug_str    000004b9  00000000  00000000  00022708  2**0
                  CONTENTS, READONLY, DEBUGGING
 15 .debug_loc    00000d4f  00000000  00000000  00022bc1  2**0
                  CONTENTS, READONLY, DEBUGGING
 16 .debug_ranges 00000048  00000000  00000000  00023910  2**3
                  CONTENTS, READONLY, DEBUGGING

Disassembly of section .text:

00000000 <reset_handler-0x300>:
@-----------------------------------------------------------@

.section .VECTOR, "ax"
.arm

	LDR	PC, =reset_handler	@ Reset entry
   0:	e59ff018 	ldr	pc, [pc, #24]	; 20 <B_Thumb>
	LDR	PC, =trap		@ Undef entry
   4:	e59ff018 	ldr	pc, [pc, #24]	; 24 <VIC_SWPriorityMask>
	LDR	PC, =swi_handler	@ SWI entry
   8:	e59ff018 	ldr	pc, [pc, #24]	; 28 <VIC_SWPriorityMask+0x4>
	LDR	PC, =trap		@ PAbt entry
   c:	e59ff010 	ldr	pc, [pc, #16]	; 24 <VIC_SWPriorityMask>
	LDR	PC, =trap		@ DAbt entry
  10:	e59ff00c 	ldr	pc, [pc, #12]	; 24 <VIC_SWPriorityMask>
  14:	00000000 	.word	0x00000000
	.word	0			@ Check sum (set by flash programmer)
	LDR	PC, =irq_handler	@ IRQ entry
  18:	e59ff00c 	ldr	pc, [pc, #12]	; 2c <VIC_SWPriorityMask+0x8>
	LDR     PC, =fiq_handler	@ FIQ entry
  1c:	e59ff00c 	ldr	pc, [pc, #12]	; 30 <VIC_SWPriorityMask+0xc>
@-----------------------------------------------------------@

.section .VECTOR, "ax"
.arm

	LDR	PC, =reset_handler	@ Reset entry
  20:	00000300 	.word	0x00000300
	LDR	PC, =trap		@ Undef entry
  24:	0000038c 	.word	0x0000038c
	LDR	PC, =swi_handler	@ SWI entry
  28:	000003fc 	.word	0x000003fc
	LDR	PC, =trap		@ PAbt entry
	LDR	PC, =trap		@ DAbt entry
	.word	0			@ Check sum (set by flash programmer)
	LDR	PC, =irq_handler	@ IRQ entry
  2c:	000003ac 	.word	0x000003ac
	LDR     PC, =fiq_handler	@ FIQ entry
  30:	000003f4 	.word	0x000003f4
	...

00000300 <reset_handler>:
@	LDR	R0, =TargetResetInit
@	MOV	LR, PC
@	BX	R0

@ Setup Stack for each mode
	LDR	R0, =stack_end
 300:	e59f0088 	ldr	r0, [pc, #136]	; 390 <trap+0x4>

@ Enter Undefined Instruction Mode and set its Stack Pointer
	MSR	CPSR_c, #M_UND | B_Irq | B_Fiq
 304:	e321f0db 	msr	CPSR_c, #219	; 0xdb
	MOV	SP, R0
 308:	e1a0d000 	mov	sp, r0
	SUB	R0, R0, #UND_Stack_Size
 30c:	e2400000 	sub	r0, r0, #0

@ Enter Abort Mode and set its Stack Pointer
	MSR	CPSR_c, #M_ABT | B_Irq | B_Fiq
 310:	e321f0d7 	msr	CPSR_c, #215	; 0xd7
	MOV	SP, R0
 314:	e1a0d000 	mov	sp, r0
	SUB	R0, R0, #ABT_Stack_Size
 318:	e2400000 	sub	r0, r0, #0

@ Enter FIQ Mode and set its Stack Pointer
	MSR	CPSR_c, #M_FIQ | B_Irq | B_Fiq
 31c:	e321f0d1 	msr	CPSR_c, #209	; 0xd1
	MOV	SP, R0
 320:	e1a0d000 	mov	sp, r0
	SUB	R0, R0, #FIQ_Stack_Size
 324:	e2400010 	sub	r0, r0, #16

@ Enter IRQ Mode and set its Stack Pointer
	MSR	CPSR_c, #M_IRQ | B_Irq | B_Fiq
 328:	e321f0d2 	msr	CPSR_c, #210	; 0xd2
	MOV	SP, R0
 32c:	e1a0d000 	mov	sp, r0
	SUB	R0, R0, #IRQ_Stack_Size
 330:	e2400c01 	sub	r0, r0, #256	; 0x100

@ Enter Supervisor Mode and set its Stack Pointer
	MSR	CPSR_c, #M_SVC | B_Irq | B_Fiq
 334:	e321f0d3 	msr	CPSR_c, #211	; 0xd3
	MOV	SP, R0
 338:	e1a0d000 	mov	sp, r0
	SUB	R0, R0, #SVC_Stack_Size
 33c:	e2400c01 	sub	r0, r0, #256	; 0x100

@ Enter User Mode and set its Stack Pointer
	MSR	CPSR_c, #M_USR | B_Irq | B_Fiq
 340:	e321f0d0 	msr	CPSR_c, #208	; 0xd0
	MOV	SP, R0
 344:	e1a0d000 	mov	sp, r0
	SUB	SL, SP, #USR_Stack_Size
 348:	e24dab02 	sub	sl, sp, #2048	; 0x800

@ Initialize .data section (Copy ROM data)
	LDR	R1, =_sidata
 34c:	e59f1040 	ldr	r1, [pc, #64]	; 394 <trap+0x8>
	LDR	R2, =_sdata
 350:	e59f2040 	ldr	r2, [pc, #64]	; 398 <trap+0xc>
	LDR	R3, =_edata
 354:	e59f3040 	ldr	r3, [pc, #64]	; 39c <trap+0x10>
1:	CMP	R2, R3
 358:	e1520003 	cmp	r2, r3
	LDRLO	R0, [R1], #4
 35c:	34910004 	ldrcc	r0, [r1], #4
	STRLO	R0, [R2], #4
 360:	34820004 	strcc	r0, [r2], #4
	BLO	1b
 364:	3afffffb 	bcc	358 <reset_handler+0x58>

@ Initialize .bss section (Fill with 0)
	MOV	R0, #0
 368:	e3a00000 	mov	r0, #0
	LDR	R1, =_sbss
 36c:	e59f102c 	ldr	r1, [pc, #44]	; 3a0 <trap+0x14>
	LDR	R2, =_ebss
 370:	e59f202c 	ldr	r2, [pc, #44]	; 3a4 <trap+0x18>
3:	CMP	R1, R2
 374:	e1510002 	cmp	r1, r2
	STRLO	R0, [R1], #4
 378:	34810004 	strcc	r0, [r1], #4
	BLO	3b
 37c:	3afffffc 	bcc	374 <reset_handler+0x74>

@ Start main()
.extern main
	LDR	R0, =main
 380:	e59f0020 	ldr	r0, [pc, #32]	; 3a8 <trap+0x1c>
	MOV	LR, PC
 384:	e1a0e00f 	mov	lr, pc
	BX	R0
 388:	e12fff10 	bx	r0

0000038c <trap>:

@ Trap (infinite loop)
trap:
	B	trap
 38c:	eafffffe 	b	38c <trap>
@	LDR	R0, =TargetResetInit
@	MOV	LR, PC
@	BX	R0

@ Setup Stack for each mode
	LDR	R0, =stack_end
 390:	40000b40 	.word	0x40000b40
	MSR	CPSR_c, #M_USR | B_Irq | B_Fiq
	MOV	SP, R0
	SUB	SL, SP, #USR_Stack_Size

@ Initialize .data section (Copy ROM data)
	LDR	R1, =_sidata
 394:	00000ff0 	.word	0x00000ff0
	LDR	R2, =_sdata
 398:	40000000 	.word	0x40000000
	LDR	R3, =_edata
 39c:	4000000c 	.word	0x4000000c
	STRLO	R0, [R2], #4
	BLO	1b

@ Initialize .bss section (Fill with 0)
	MOV	R0, #0
	LDR	R1, =_sbss
 3a0:	4000000c 	.word	0x4000000c
	LDR	R2, =_ebss
 3a4:	4000012c 	.word	0x4000012c
	STRLO	R0, [R1], #4
	BLO	3b

@ Start main()
.extern main
	LDR	R0, =main
 3a8:	000006f5 	.word	0x000006f5

000003ac <irq_handler>:
.equ VIC_VectAddr0,	0x100
.equ VIC_VectPriority0,	0x200
.equ VIC_VectAddr,	0xF00

irq_handler:
	SUB	LR, LR, #4		@ Adjust LR_irq and push it
 3ac:	e24ee004 	sub	lr, lr, #4
	STMFD	SP!, {LR}
 3b0:	e92d4000 	stmfd	sp!, {lr}

	MRS	LR, SPSR		@ Save SPSR need to be saved for nested interrupt
 3b4:	e14fe000 	mrs	lr, SPSR
	STMFD	SP!, {R0-R3,IP,LR}	@ Push scratch/used registers and SPSR
 3b8:	e92d500f 	push	{r0, r1, r2, r3, ip, lr}
	LDR	R0, =LPC_BASE_VIC	@ Get the ISR address pointed by VIC_VectAddr
 3bc:	e59f002c 	ldr	r0, [pc, #44]	; 3f0 <irq_handler+0x44>
	LDR	R0, [R0, #VIC_VectAddr]
 3c0:	e5900f00 	ldr	r0, [r0, #3840]	; 0xf00
	MSR	CPSR_c, #M_SVC		@ Enter SVC mode and enable Irq and Fiq
 3c4:	e321f013 	msr	CPSR_c, #19

	STMFD	SP!, {LR}		@ Call the ISR
 3c8:	e92d4000 	stmfd	sp!, {lr}
	MOV	LR, PC
 3cc:	e1a0e00f 	mov	lr, pc
	BX	R0
 3d0:	e12fff10 	bx	r0
	LDMIA	SP!, {LR}
 3d4:	e8bd4000 	ldmfd	sp!, {lr}

	MSR	CPSR_c, #M_IRQ | B_Irq	@ Enter IRQ mode and disable Irq
 3d8:	e321f092 	msr	CPSR_c, #146	; 0x92
	LDMIA	SP!, {R0-R3,IP,LR}	@ Restore scratch/used registers and SPSR
 3dc:	e8bd500f 	pop	{r0, r1, r2, r3, ip, lr}
	MSR	SPSR_cxsf, LR		@ Restore SPSR_irq
 3e0:	e16ff00e 	msr	SPSR_fsxc, lr

	LDR	LR, =LPC_BASE_VIC	@ Issue EOI command to the VIC
 3e4:	e59fe004 	ldr	lr, [pc, #4]	; 3f0 <irq_handler+0x44>
	STR	LR, [LR, #VIC_VectAddr]
 3e8:	e58eef00 	str	lr, [lr, #3840]	; 0xf00

	LDMIA	SP!, {PC}^		@ Reruen from the IRQ handler
 3ec:	e8fd8000 	ldm	sp!, {pc}^
	SUB	LR, LR, #4		@ Adjust LR_irq and push it
	STMFD	SP!, {LR}

	MRS	LR, SPSR		@ Save SPSR need to be saved for nested interrupt
	STMFD	SP!, {R0-R3,IP,LR}	@ Push scratch/used registers and SPSR
	LDR	R0, =LPC_BASE_VIC	@ Get the ISR address pointed by VIC_VectAddr
 3f0:	fffff000 	.word	0xfffff000

000003f4 <fiq_handler>:
@ FIQ Handler
@ FIQ routine is typically written in assembler
@-----------------------------------------------------------@

fiq_handler:
	SUB	LR, LR, #4		@ Adjust LR_fiq
 3f4:	e24ee004 	sub	lr, lr, #4

	@ Put the FIQ service here

	MOVS	PC, LR			@ Return from FIQ
 3f8:	e1b0f00e 	movs	pc, lr

000003fc <swi_handler>:
@-----------------------------------------------------------@
@ SWI Service (declared in interrupt.h)
@-----------------------------------------------------------@

swi_handler:
	MRS	IP, SPSR
 3fc:	e14fc000 	mrs	ip, SPSR
	TST	IP, #B_Thumb		@ Check caller's state, ARM or Thumb
 400:	e31c0020 	tst	ip, #32
	LDRNEH	IP, [LR, #-2]		@ Get swi instruction code (on Thumb state)
 404:	115ec0b2 	ldrhne	ip, [lr, #-2]
	LDREQ	IP, [LR, #-4]		@ Get swi instruction code (on ARM state)
 408:	051ec004 	ldreq	ip, [lr, #-4]
	AND	IP, #0xFF		@ Get swi comment field (lower 8 bit)
 40c:	e20cc0ff 	and	ip, ip, #255	; 0xff
	CMP	IP, #7			@ Check range
 410:	e35c0007 	cmp	ip, #7
	LDRLO	PC, [PC, IP, LSL #2]	@ Jump to each service function when code is valid
 414:	379ff10c 	ldrcc	pc, [pc, ip, lsl #2]
	MOVS	PC, LR			@ Otherwise return
 418:	e1b0f00e 	movs	pc, lr
 41c:	00000438 	.word	0x00000438
 420:	00000448 	.word	0x00000448
 424:	00000458 	.word	0x00000458
 428:	0000047c 	.word	0x0000047c
 42c:	000004b4 	.word	0x000004b4
 430:	000004d4 	.word	0x000004d4
 434:	000004e4 	.word	0x000004e4

00000438 <irq_disable>:
	.word	sel_fiq		@ 4 Select FIQ interrupt
	.word	load_fiq	@ 5 Load FIQ shadow regs from memory
	.word	store_fiq	@ 6 Store FIQ shadow regs to memory

irq_disable:
	MRS	R0, SPSR
 438:	e14f0000 	mrs	r0, SPSR
	ORR	R0, R0, #B_Irq | B_Fiq
 43c:	e38000c0 	orr	r0, r0, #192	; 0xc0
	MSR	SPSR_c, R0
 440:	e161f000 	msr	SPSR_c, r0
	MOVS	PC, LR
 444:	e1b0f00e 	movs	pc, lr

00000448 <irq_enable>:

irq_enable:
	MRS	R0, SPSR
 448:	e14f0000 	mrs	r0, SPSR
	BIC	R0, R0, #B_Irq | B_Fiq
 44c:	e3c000c0 	bic	r0, r0, #192	; 0xc0
	MSR	SPSR_c, R0
 450:	e161f000 	msr	SPSR_c, r0
	MOVS	PC, LR
 454:	e1b0f00e 	movs	pc, lr

00000458 <clear_vect>:

clear_vect:
	LDR	IP, =LPC_BASE_VIC
 458:	e59fc094 	ldr	ip, [pc, #148]	; 4f4 <store_fiq+0x10>
	MVN	R0, #0				@ Disable all interrupts
 45c:	e3e00000 	mvn	r0, #0
	STR	R0, [IP, #VIC_IntEnClear]
 460:	e58c0014 	str	r0, [ip, #20]
	MOV	R0, R0, LSR #16			@ Unmask all interrupt levels
 464:	e1a00820 	lsr	r0, r0, #16
	STR	R0, [IP, #VIC_SWPriorityMask]
 468:	e58c0024 	str	r0, [ip, #36]	; 0x24
	MOV	R0, #1				@ Enable protection
 46c:	e3a00001 	mov	r0, #1
	STR	R0, [IP, #VIC_Protection]
 470:	e58c0020 	str	r0, [ip, #32]
	STR	R0, [IP, #VIC_VectAddr]		@ Issule EOI command
 474:	e58c0f00 	str	r0, [ip, #3840]	; 0xf00
	MOVS	PC, LR
 478:	e1b0f00e 	movs	pc, lr

0000047c <reg_irq>:

reg_irq:
	CMP	R0, #32				@ Range check
 47c:	e3500020 	cmp	r0, #32
	MOVCSS	PC, LR
 480:	21b0f00e 	movscs	pc, lr
	LDR	IP, =(LPC_BASE_VIC+VIC_VectAddr0)
 484:	e59fc06c 	ldr	ip, [pc, #108]	; 4f8 <store_fiq+0x14>
	STR	R1, [IP, R0, LSL #2]		@ Set VICVectVectAddr<n>
 488:	e78c1100 	str	r1, [ip, r0, lsl #2]
	LDR	IP, =(LPC_BASE_VIC+VIC_VectPriority0)
 48c:	e59fc068 	ldr	ip, [pc, #104]	; 4fc <store_fiq+0x18>
	STR	R2, [IP, R0, LSL #2]		@ Set VICVectPriority<n>
 490:	e78c2100 	str	r2, [ip, r0, lsl #2]
	MOV	R1, #1
 494:	e3a01001 	mov	r1, #1
	MOV	R1, R1, LSL R0
 498:	e1a01011 	lsl	r1, r1, r0
	LDR	IP, =LPC_BASE_VIC
 49c:	e59fc050 	ldr	ip, [pc, #80]	; 4f4 <store_fiq+0x10>
	LDR	R2, [IP, #VIC_IntSelect]	@ Clear corresponding bit in the VICIntSelect
 4a0:	e59c200c 	ldr	r2, [ip, #12]
	BIC	R2, R1
 4a4:	e1c22001 	bic	r2, r2, r1
	STR	R2, [IP, #VIC_IntSelect]
 4a8:	e58c200c 	str	r2, [ip, #12]
	STR	R1, [IP, #VIC_IntEnable]	@ Enable corresponding interrupt
 4ac:	e58c1010 	str	r1, [ip, #16]
	MOVS	PC, LR
 4b0:	e1b0f00e 	movs	pc, lr

000004b4 <sel_fiq>:

sel_fiq:
	CMP	R0, #32				@ Range check
 4b4:	e3500020 	cmp	r0, #32
	MOVCSS	PC, LR
 4b8:	21b0f00e 	movscs	pc, lr
	LDR	IP, =LPC_BASE_VIC
 4bc:	e59fc030 	ldr	ip, [pc, #48]	; 4f4 <store_fiq+0x10>
	MOV	R1, #1				@ Set corresponding bit in the VICIntSelect
 4c0:	e3a01001 	mov	r1, #1
	MOV	R1, R1, LSL R0
 4c4:	e1a01011 	lsl	r1, r1, r0
	STR	R1, [IP, #VIC_IntSelect]
 4c8:	e58c100c 	str	r1, [ip, #12]
	STR	R1, [IP, #VIC_IntEnable]	@ Enable corresponding interrupt
 4cc:	e58c1010 	str	r1, [ip, #16]
	MOVS	PC, LR
 4d0:	e1b0f00e 	movs	pc, lr

000004d4 <load_fiq>:

load_fiq:
	MSR	CPSR_c, #M_FIQ | B_Fiq
 4d4:	e321f051 	msr	CPSR_c, #81	; 0x51
	LDMIA	R0!, {R8-R12}			@ Load the memory to five shadow registers
 4d8:	e8b01f00 	ldm	r0!, {r8, r9, sl, fp, ip}
	MSR	CPSR_c, #M_SVC
 4dc:	e321f013 	msr	CPSR_c, #19
	MOVS	PC, LR
 4e0:	e1b0f00e 	movs	pc, lr

000004e4 <store_fiq>:

store_fiq:
	MSR	CPSR_c, #M_FIQ | B_Fiq
 4e4:	e321f051 	msr	CPSR_c, #81	; 0x51
	STMIA	R0!, {R8-R12}			@ Store five shadow registers to the memory
 4e8:	e8a01f00 	stmia	r0!, {r8, r9, sl, fp, ip}
	MSR	CPSR_c, #M_SVC
 4ec:	e321f013 	msr	CPSR_c, #19
	MOVS	PC, LR
 4f0:	e1b0f00e 	movs	pc, lr
	BIC	R0, R0, #B_Irq | B_Fiq
	MSR	SPSR_c, R0
	MOVS	PC, LR

clear_vect:
	LDR	IP, =LPC_BASE_VIC
 4f4:	fffff000 	.word	0xfffff000
	MOVS	PC, LR

reg_irq:
	CMP	R0, #32				@ Range check
	MOVCSS	PC, LR
	LDR	IP, =(LPC_BASE_VIC+VIC_VectAddr0)
 4f8:	fffff100 	.word	0xfffff100
	STR	R1, [IP, R0, LSL #2]		@ Set VICVectVectAddr<n>
	LDR	IP, =(LPC_BASE_VIC+VIC_VectPriority0)
 4fc:	fffff200 	.word	0xfffff200

00000500 <Copy_un2al>:
@ void Copy_un2al (DWORD *dst, const BYTE *src, int count);
.global Copy_un2al
.type Copy_un2al, %function
.func Copy_un2al
Copy_un2al:
	STMFD	SP!, {R4-R8}
 500:	e92d01f0 	push	{r4, r5, r6, r7, r8}
	ANDS	IP, R1, #3
 504:	e211c003 	ands	ip, r1, #3
	BEQ	lb_align
 508:	0a000012 	beq	558 <lb_align>

	BIC	R1, #3
 50c:	e3c11003 	bic	r1, r1, #3
	MOV	IP, IP, LSL #3
 510:	e1a0c18c 	lsl	ip, ip, #3
	RSB	R8, IP, #32
 514:	e26c8020 	rsb	r8, ip, #32
	LDMIA	R1!, {R7}
 518:	e8b10080 	ldm	r1!, {r7}
1:	MOV	R3, R7
 51c:	e1a03007 	mov	r3, r7
	LDMIA	R1!, {R4-R7}
 520:	e8b100f0 	ldm	r1!, {r4, r5, r6, r7}
	MOV	R3, R3, LSR IP
 524:	e1a03c33 	lsr	r3, r3, ip
	ORR	R3, R3, R4, LSL R8
 528:	e1833814 	orr	r3, r3, r4, lsl r8
	MOV	R4, R4, LSR IP
 52c:	e1a04c34 	lsr	r4, r4, ip
	ORR	R4, R4, R5, LSL R8
 530:	e1844815 	orr	r4, r4, r5, lsl r8
	MOV	R5, R5, LSR IP
 534:	e1a05c35 	lsr	r5, r5, ip
	ORR	R5, R5, R6, LSL R8
 538:	e1855816 	orr	r5, r5, r6, lsl r8
	MOV	R6, R6, LSR IP
 53c:	e1a06c36 	lsr	r6, r6, ip
	ORR	R6, R6, R7, LSL R8
 540:	e1866817 	orr	r6, r6, r7, lsl r8
	SUBS	R2, R2, #16
 544:	e2522010 	subs	r2, r2, #16
	STMIA	R0!, {R3-R6}
 548:	e8a00078 	stmia	r0!, {r3, r4, r5, r6}
	BNE	1b
 54c:	1afffff2 	bne	51c <Copy_un2al+0x1c>
	LDMFD	SP!, {R4-R8}
 550:	e8bd01f0 	pop	{r4, r5, r6, r7, r8}
	BX	LR
 554:	e12fff1e 	bx	lr

00000558 <lb_align>:

lb_align:
	LDMIA	R1!, {R3-R6}
 558:	e8b10078 	ldm	r1!, {r3, r4, r5, r6}
	SUBS	R2, R2, #16
 55c:	e2522010 	subs	r2, r2, #16
	STMIA	R0!, {R3-R6}
 560:	e8a00078 	stmia	r0!, {r3, r4, r5, r6}
	BNE	lb_align
 564:	1afffffb 	bne	558 <lb_align>
	LDMFD	SP!, {R4-R8}
 568:	e8bd01f0 	pop	{r4, r5, r6, r7, r8}
	BX	LR
 56c:	e12fff1e 	bx	lr

00000570 <Copy_al2un>:
@ void Copy_al2un (BYTE *dst, const DWORD *src, int count);
.global Copy_al2un
.type Copy_al2un, %function
.func Copy_al2un
Copy_al2un:
	STMFD	SP!, {R4-R8}
 570:	e92d01f0 	push	{r4, r5, r6, r7, r8}
	ANDS	IP, R0, #3
 574:	e210c003 	ands	ip, r0, #3
	BEQ	sb_align
 578:	0a000021 	beq	604 <sb_align>

	MOV	IP, IP, LSL #3
 57c:	e1a0c18c 	lsl	ip, ip, #3
	RSB	R8, IP, #32
 580:	e26c8020 	rsb	r8, ip, #32

	LDMIA	R1!, {R4-R7}
 584:	e8b100f0 	ldm	r1!, {r4, r5, r6, r7}
1:	STRB	R4, [R0], #1
 588:	e4c04001 	strb	r4, [r0], #1
	MOV	R4, R4, LSR #8
 58c:	e1a04424 	lsr	r4, r4, #8
	TST	R0, #3
 590:	e3100003 	tst	r0, #3
	BNE	1b
 594:	1afffffb 	bne	588 <Copy_al2un+0x18>
	ORR	R4, R4, R5, LSL IP
 598:	e1844c15 	orr	r4, r4, r5, lsl ip
	MOV	R5, R5, LSR R8
 59c:	e1a05835 	lsr	r5, r5, r8
	ORR	R5, R5, R6, LSL IP
 5a0:	e1855c16 	orr	r5, r5, r6, lsl ip
	MOV	R6, R6, LSR R8
 5a4:	e1a06836 	lsr	r6, r6, r8
	ORR	R6, R6, R7, LSL IP
 5a8:	e1866c17 	orr	r6, r6, r7, lsl ip
	SUBS	R2, R2, #16
 5ac:	e2522010 	subs	r2, r2, #16
	STMIA	R0!, {R4-R6}
 5b0:	e8a00070 	stmia	r0!, {r4, r5, r6}

2:	MOV	R3, R7
 5b4:	e1a03007 	mov	r3, r7
	LDMIA	R1!, {R4-R7}
 5b8:	e8b100f0 	ldm	r1!, {r4, r5, r6, r7}
	MOV	R3, R3, LSR R8
 5bc:	e1a03833 	lsr	r3, r3, r8
	ORR	R3, R3, R4, LSL IP
 5c0:	e1833c14 	orr	r3, r3, r4, lsl ip
	MOV	R4, R4, LSR R8
 5c4:	e1a04834 	lsr	r4, r4, r8
	ORR	R4, R4, R5, LSL IP
 5c8:	e1844c15 	orr	r4, r4, r5, lsl ip
	MOV	R5, R5, LSR R8
 5cc:	e1a05835 	lsr	r5, r5, r8
	ORR	R5, R5, R6, LSL IP
 5d0:	e1855c16 	orr	r5, r5, r6, lsl ip
	MOV	R6, R6, LSR R8
 5d4:	e1a06836 	lsr	r6, r6, r8
	ORR	R6, R6, R7, LSL IP
 5d8:	e1866c17 	orr	r6, r6, r7, lsl ip
	SUBS	R2, R2, #16
 5dc:	e2522010 	subs	r2, r2, #16
	STMIA	R0!, {R3-R6}
 5e0:	e8a00078 	stmia	r0!, {r3, r4, r5, r6}
	BNE	2b
 5e4:	1afffff2 	bne	5b4 <Copy_al2un+0x44>

	MOV	R7, R7, LSR R8
 5e8:	e1a07837 	lsr	r7, r7, r8
3:	SUBS	IP, IP, #8
 5ec:	e25cc008 	subs	ip, ip, #8
	STRB	R7, [R0], #1
 5f0:	e4c07001 	strb	r7, [r0], #1
	MOV	R7, R7, LSR #8
 5f4:	e1a07427 	lsr	r7, r7, #8
	BNE	3b
 5f8:	1afffffb 	bne	5ec <Copy_al2un+0x7c>

	LDMFD	SP!, {R4-R8}
 5fc:	e8bd01f0 	pop	{r4, r5, r6, r7, r8}
	BX	LR
 600:	e12fff1e 	bx	lr

00000604 <sb_align>:

sb_align:
	LDMIA	R1!, {R3-R6}
 604:	e8b10078 	ldm	r1!, {r3, r4, r5, r6}
	SUBS	R2, #16
 608:	e2522010 	subs	r2, r2, #16
	STMIA	R0!, {R3-R6}
 60c:	e8a00078 	stmia	r0!, {r3, r4, r5, r6}
	BNE	sb_align
 610:	1afffffb 	bne	604 <sb_align>
	LDMFD	SP!, {R4-R8}
 614:	e8bd01f0 	pop	{r4, r5, r6, r7, r8}
	BX	LR
 618:	e12fff1e 	bx	lr

0000061c <Isr_TIMER0>:
/*---------------------------------------------------------*/
/* 1000Hz timer interrupt generated by TIMER0              */
/*---------------------------------------------------------*/
void Isr_TIMER0 (void)
{
	T0IR = 1;			/* Clear irq flag */
 61c:	2201      	movs	r2, #1
 61e:	4b01      	ldr	r3, [pc, #4]	; (624 <Isr_TIMER0+0x8>)
 620:	601a      	str	r2, [r3, #0]
	/* Timer++;			[> Performance timer <] */
	/* TmrFrm += 1000;		[> Video frame timer (disp.c) <] */

	/* MCI_timerproc();	[> Disk timer process <] */

} 
 622:	4770      	bx	lr
 624:	e0004000 	.word	0xe0004000

00000628 <GPIOInit>:

void GPIOInit (void)
{
	/* FIO2MASK = 0; */
	/* Leds to output */
	FIO2DIR0 |= (1 << LED1) | (1 << LED2);
 628:	2203      	movs	r2, #3
 62a:	4906      	ldr	r1, [pc, #24]	; (644 <GPIOInit+0x1c>)
 62c:	780b      	ldrb	r3, [r1, #0]
 62e:	4313      	orrs	r3, r2
 630:	700b      	strb	r3, [r1, #0]
	/* Switch on leds */
	FIO2SET0 = (1 << LED1) | (1 << LED2);
	SCS |= 1;
 632:	2101      	movs	r1, #1
{
	/* FIO2MASK = 0; */
	/* Leds to output */
	FIO2DIR0 |= (1 << LED1) | (1 << LED2);
	/* Switch on leds */
	FIO2SET0 = (1 << LED1) | (1 << LED2);
 634:	4b04      	ldr	r3, [pc, #16]	; (648 <GPIOInit+0x20>)
 636:	701a      	strb	r2, [r3, #0]
	SCS |= 1;
 638:	4a04      	ldr	r2, [pc, #16]	; (64c <GPIOInit+0x24>)
 63a:	6813      	ldr	r3, [r2, #0]
 63c:	430b      	orrs	r3, r1
 63e:	6013      	str	r3, [r2, #0]
}
 640:	4770      	bx	lr
 642:	46c0      	nop			; (mov r8, r8)
 644:	3fffc040 	.word	0x3fffc040
 648:	3fffc058 	.word	0x3fffc058
 64c:	e01fc1a0 	.word	0xe01fc1a0

00000650 <IoInit1>:

void IoInit1(void)
{
// 1. Init OSC
	SCS = (1 << 5);
 650:	2220      	movs	r2, #32
 652:	4b1e      	ldr	r3, [pc, #120]	; (6cc <IoInit1+0x7c>)
	FIO2SET0 = (1 << LED1) | (1 << LED2);
	SCS |= 1;
}

void IoInit1(void)
{
 654:	b570      	push	{r4, r5, r6, lr}
// 1. Init OSC
	SCS = (1 << 5);
 656:	601a      	str	r2, [r3, #0]
	/* SCS_bit.OSCRANGE = 0; */
	/* SCS_bit.OSCEN = 1; */
	// 2.  Wait for OSC ready
	/* while(!SCS_bit.OSCSTAT); */
  while (!(SCS & 0x40)); //	[>Osc stabilization procedure<] 
 658:	681a      	ldr	r2, [r3, #0]
 65a:	0652      	lsls	r2, r2, #25
 65c:	d5fc      	bpl.n	658 <IoInit1+0x8>
	// 3. Disconnect PLL
	PLLCON = 1; 
	/* PLLCON_bit.PLLC = 0; */
	PLLFEED = 0xAA;
 65e:	20aa      	movs	r0, #170	; 0xaa
	PLLFEED = 0x55;
 660:	2155      	movs	r1, #85	; 0x55
	/* SCS_bit.OSCEN = 1; */
	// 2.  Wait for OSC ready
	/* while(!SCS_bit.OSCSTAT); */
  while (!(SCS & 0x40)); //	[>Osc stabilization procedure<] 
	// 3. Disconnect PLL
	PLLCON = 1; 
 662:	2501      	movs	r5, #1
	/* PLLCON_bit.PLLC = 0; */
	PLLFEED = 0xAA;
	PLLFEED = 0x55;
	// 4. Disable PLL
	PLLCON = 0;
 664:	2400      	movs	r4, #0
	/* while(!SCS_bit.OSCSTAT); */
  while (!(SCS & 0x40)); //	[>Osc stabilization procedure<] 
	// 3. Disconnect PLL
	PLLCON = 1; 
	/* PLLCON_bit.PLLC = 0; */
	PLLFEED = 0xAA;
 666:	4b1a      	ldr	r3, [pc, #104]	; (6d0 <IoInit1+0x80>)
	/* SCS_bit.OSCEN = 1; */
	// 2.  Wait for OSC ready
	/* while(!SCS_bit.OSCSTAT); */
  while (!(SCS & 0x40)); //	[>Osc stabilization procedure<] 
	// 3. Disconnect PLL
	PLLCON = 1; 
 668:	4a1a      	ldr	r2, [pc, #104]	; (6d4 <IoInit1+0x84>)
 66a:	6015      	str	r5, [r2, #0]
	/* PLLCON_bit.PLLC = 0; */
	PLLFEED = 0xAA;
 66c:	6018      	str	r0, [r3, #0]
	PLLFEED = 0x55;
 66e:	6019      	str	r1, [r3, #0]
	// 4. Disable PLL
	PLLCON = 0;
 670:	6014      	str	r4, [r2, #0]
	PLLFEED = 0xAA;
	PLLFEED = 0x55;
	// 5. Select source clock for PLL
	CLKSRCSEL = 1;			/* Select external as the PLL clock source */
 672:	4c19      	ldr	r4, [pc, #100]	; (6d8 <IoInit1+0x88>)
	/* PLLCON_bit.PLLC = 0; */
	PLLFEED = 0xAA;
	PLLFEED = 0x55;
	// 4. Disable PLL
	PLLCON = 0;
	PLLFEED = 0xAA;
 674:	6018      	str	r0, [r3, #0]
	PLLFEED = 0x55;
	// 5. Select source clock for PLL
	CLKSRCSEL = 1;			/* Select external as the PLL clock source */
	/* CLKSRCSEL_bit.CLKSRC = 1; // Selects the main oscillator as a PLL clock source. */
	// 6. Set PLL settings 288 MHz
	PLLCFG = ((2 - 1) << 16) | (24 - 1);	/* Re-configure PLL */
 676:	4e19      	ldr	r6, [pc, #100]	; (6dc <IoInit1+0x8c>)
	PLLFEED = 0xAA;
	PLLFEED = 0x55;
	// 4. Disable PLL
	PLLCON = 0;
	PLLFEED = 0xAA;
	PLLFEED = 0x55;
 678:	6019      	str	r1, [r3, #0]
	// 5. Select source clock for PLL
	CLKSRCSEL = 1;			/* Select external as the PLL clock source */
 67a:	6025      	str	r5, [r4, #0]
	/* CLKSRCSEL_bit.CLKSRC = 1; // Selects the main oscillator as a PLL clock source. */
	// 6. Set PLL settings 288 MHz
	PLLCFG = ((2 - 1) << 16) | (24 - 1);	/* Re-configure PLL */
 67c:	4c18      	ldr	r4, [pc, #96]	; (6e0 <IoInit1+0x90>)
 67e:	6026      	str	r6, [r4, #0]
	/* PLLCFG_bit.MSEL = 24-1; */
	/* PLLCFG_bit.NSEL = 2-1; */
	PLLFEED = 0xAA;
 680:	6018      	str	r0, [r3, #0]
	PLLFEED = 0x55;
 682:	6019      	str	r1, [r3, #0]
	// 7. Enable PLL
	/* PLLCON_bit.PLLE = 1; */
	PLLCON |= 1 << 0; 
 684:	6814      	ldr	r4, [r2, #0]
 686:	432c      	orrs	r4, r5
 688:	6014      	str	r4, [r2, #0]
	PLLFEED = 0xAA;
 68a:	6018      	str	r0, [r3, #0]
	PLLFEED = 0x55;
 68c:	6019      	str	r1, [r3, #0]
	// 8. Wait for the PLL to achieve lock
	/* while(!PLLSTAT_bit.PLOCK); */
	while ((PLLSTAT & (1 << 26)) == 0);	/* Wait for PLL locked */
 68e:	4915      	ldr	r1, [pc, #84]	; (6e4 <IoInit1+0x94>)
 690:	6809      	ldr	r1, [r1, #0]
 692:	0149      	lsls	r1, r1, #5
 694:	d5fb      	bpl.n	68e <IoInit1+0x3e>
	// 9. Set clk divider settings
	CCLKCFG   = 4-1;            // 1/4 Fpll - 72 MHz; 1/5 - 60
 696:	2003      	movs	r0, #3
 698:	4913      	ldr	r1, [pc, #76]	; (6e8 <IoInit1+0x98>)
 69a:	6008      	str	r0, [r1, #0]
	//USBCLKCFG = 6-1;            // 1/6 Fpll - 48 MHz
	PCLKSEL0 = PCLKSEL1 = 0;    // other peripherals
 69c:	2000      	movs	r0, #0
 69e:	4913      	ldr	r1, [pc, #76]	; (6ec <IoInit1+0x9c>)
 6a0:	4c13      	ldr	r4, [pc, #76]	; (6f0 <IoInit1+0xa0>)
 6a2:	6008      	str	r0, [r1, #0]
 6a4:	6020      	str	r0, [r4, #0]


	PCLKSEL1 = 1 << 2;	//GPIO: 0 - 1/4; 1 - 1; 2 - 1/2; 3 - 1/8
 6a6:	3004      	adds	r0, #4
 6a8:	6008      	str	r0, [r1, #0]
	/* PCLKSEL0_bit.PCLK_TIMER0 = 1;	//0 - 1/4; 1 - 1; 2 - 1/2; 3 - 1/8 */
	/* PCLKSEL0_bit.PCLK_UART0 = 0;	//UART0: 0 - 1/4; 1 - 1; 2 - 1/2; 3 - 1/8 */
        
	// 10. Connect the PLL
	PLLCON |= 1 << 1;
 6aa:	6811      	ldr	r1, [r2, #0]
 6ac:	3802      	subs	r0, #2
 6ae:	4301      	orrs	r1, r0
 6b0:	6011      	str	r1, [r2, #0]
	PLLFEED = 0xAA;
 6b2:	22aa      	movs	r2, #170	; 0xaa
 6b4:	601a      	str	r2, [r3, #0]
	PLLFEED = 0x55;
 6b6:	3a55      	subs	r2, #85	; 0x55
 6b8:	601a      	str	r2, [r3, #0]
	ClearVector();			/* Initialie VIC */
 6ba:	f000 f82d 	bl	718 <ClearVector>
	GPIOInit();
 6be:	f7ff ffb3 	bl	628 <GPIOInit>
	IrqEnable();			/* Enable Irq */
 6c2:	f000 f827 	bl	714 <IrqEnable>

}
 6c6:	bc70      	pop	{r4, r5, r6}
 6c8:	bc01      	pop	{r0}
 6ca:	4700      	bx	r0
 6cc:	e01fc1a0 	.word	0xe01fc1a0
 6d0:	e01fc08c 	.word	0xe01fc08c
 6d4:	e01fc080 	.word	0xe01fc080
 6d8:	e01fc10c 	.word	0xe01fc10c
 6dc:	00010017 	.word	0x00010017
 6e0:	e01fc084 	.word	0xe01fc084
 6e4:	e01fc088 	.word	0xe01fc088
 6e8:	e01fc104 	.word	0xe01fc104
 6ec:	e01fc1ac 	.word	0xe01fc1ac
 6f0:	e01fc1a8 	.word	0xe01fc1a8

000006f4 <main>:
}



int main (void)
{
 6f4:	b508      	push	{r3, lr}
	
	GPIOInit();
 6f6:	f7ff ff97 	bl	628 <GPIOInit>
	IoInit1();			/* 	[> Initialize PLL, VIC and timer <] */
 6fa:	f7ff ffa9 	bl	650 <IoInit1>
	 uart0_init();		/* 	[> Initialize UART and join it to the console <] <] */
 6fe:	f000 f873 	bl	7e8 <uart0_init>
	UART0_send("LPC initialized\n", 16);
 702:	4802      	ldr	r0, [pc, #8]	; (70c <main+0x18>)
 704:	2110      	movs	r1, #16
 706:	f000 fb01 	bl	d0c <UART0_send>
	/* spi_init(); */
	/* xputs("\nLPC initialized\n"); */
	/* xdev_in(uart0_getc); */
	/* xdev_out(uart0_putc); */
	
	while(1);
 70a:	e7fe      	b.n	70a <main+0x16>
 70c:	00000f38 	.word	0x00000f38

00000710 <IrqDisable>:


/* Disable/Enable Irq */
void IrqDisable (void)
{
	asm ("swi 0\n");
 710:	df00      	svc	0
}
 712:	4770      	bx	lr

00000714 <IrqEnable>:

void IrqEnable (void)
{
	asm ("swi 1\n");
 714:	df01      	svc	1
}
 716:	4770      	bx	lr

00000718 <ClearVector>:


/* Unregister all ISRs */
void ClearVector (void)
{
	asm ("swi 2\n");
 718:	df02      	svc	2
}
 71a:	4770      	bx	lr

0000071c <RegisterIrq>:
	int irq,
	void(*isr)(void),
	int pri
)
{
	asm (
 71c:	df03      	svc	3
	"@ MOV R0, %0\n"
	"@ MOV R1, %1\n"
	"@ MOV R2, %2\n"
	"swi 3\n" : : "r" (irq), "r" (isr), "r" (pri)
	);
}
 71e:	4770      	bx	lr

00000720 <SelectFiq>:
/* Switch an interrtupt source as FIQ */
void SelectFiq (
	int irq
)
{
	asm (
 720:	df04      	svc	4
	"@ MOV R0, %0\n"
	"swi 4\n" : : "r" (irq)
	);
}
 722:	4770      	bx	lr

00000724 <LoadFiqRegs>:
/* Load shadow regs R8-R12 from memory */
void LoadFiqRegs (
	long *regs
)
{
	asm (
 724:	df05      	svc	5
	"@ MOV R0, %0\n"
	"swi 5\n" : : "r" (regs)
	);
}
 726:	4770      	bx	lr

00000728 <StoreFiqRegs>:
/* Store shadow regs R8-R12 to memory */
void StoreFiqRegs (
	long *regs
)
{
	asm (
 728:	df06      	svc	6
	"@ MOV R0, %0\n"
	"swi 6\n" : : "r" (regs)
	);
}
 72a:	4770      	bx	lr

0000072c <Isr_UART0>:
	uint8_t iir, d;
	int i;

		/* UART0_send("resieved", 8); */
		/* d = U0RBR; */
	iir = U0LSR;		/* 	[> [> Get interrupt ID <] <] */
 72c:	4b07      	ldr	r3, [pc, #28]	; (74c <Isr_UART0+0x20>)
 72e:	681a      	ldr	r2, [r3, #0]
 730:	4b07      	ldr	r3, [pc, #28]	; (750 <Isr_UART0+0x24>)
	/* U0THR = iir; */
	if(iir & 1 != 0)
 732:	07d2      	lsls	r2, r2, #31
 734:	d504      	bpl.n	740 <Isr_UART0+0x14>
	{	
		d = U0RBR;
		/* UART0_send("resieved", 8); */
		U0THR = d; 
 736:	22ff      	movs	r2, #255	; 0xff
		/* d = U0RBR; */
	iir = U0LSR;		/* 	[> [> Get interrupt ID <] <] */
	/* U0THR = iir; */
	if(iir & 1 != 0)
	{	
		d = U0RBR;
 738:	6819      	ldr	r1, [r3, #0]
		/* UART0_send("resieved", 8); */
		U0THR = d; 
 73a:	400a      	ands	r2, r1
 73c:	601a      	str	r2, [r3, #0]
 73e:	e000      	b.n	742 <Isr_UART0+0x16>
	}else{
		d = U0RBR;
 740:	681b      	ldr	r3, [r3, #0]
	}
		
			VICVectAddr = 0;
 742:	2200      	movs	r2, #0
 744:	4b03      	ldr	r3, [pc, #12]	; (754 <Isr_UART0+0x28>)
 746:	601a      	str	r2, [r3, #0]
	/*         default:		[> Data error or break detected <] */
	/*                 U0LSR; */
	/*                 U0RBR; */
	/*                 break; */
	/* } */
}
 748:	4770      	bx	lr
 74a:	46c0      	nop			; (mov r8, r8)
 74c:	e000c014 	.word	0xe000c014
 750:	e000c000 	.word	0xe000c000
 754:	ffffff00 	.word	0xffffff00

00000758 <uart0_test>:


int uart0_test (void)
{
	return RxBuff0.ct;
 758:	4b01      	ldr	r3, [pc, #4]	; (760 <uart0_test+0x8>)
 75a:	8898      	ldrh	r0, [r3, #4]
}
 75c:	4770      	bx	lr
 75e:	46c0      	nop			; (mov r8, r8)
 760:	4000000c 	.word	0x4000000c

00000764 <uart0_getc>:
{
	uint8_t d;
	int i;

	/* Wait while Rx buffer is empty */
	while (!RxBuff0.ct) ;
 764:	4a0a      	ldr	r2, [pc, #40]	; (790 <uart0_getc+0x2c>)
 766:	8893      	ldrh	r3, [r2, #4]
 768:	2b00      	cmp	r3, #0
 76a:	d0fb      	beq.n	764 <uart0_getc>

	i = RxBuff0.ri;	/* Get a byte from Rx buffer */
 76c:	8813      	ldrh	r3, [r2, #0]
	d = RxBuff0.buff[i++];
 76e:	18d1      	adds	r1, r2, r3
 770:	7988      	ldrb	r0, [r1, #6]
	RxBuff0.ri = i % UART0_RXB;
 772:	217f      	movs	r1, #127	; 0x7f

	/* Wait while Rx buffer is empty */
	while (!RxBuff0.ct) ;

	i = RxBuff0.ri;	/* Get a byte from Rx buffer */
	d = RxBuff0.buff[i++];
 774:	3301      	adds	r3, #1
	RxBuff0.ri = i % UART0_RXB;
 776:	400b      	ands	r3, r1
 778:	8013      	strh	r3, [r2, #0]
	U0IER = 0;		/* Disable interrupts */
 77a:	2300      	movs	r3, #0
 77c:	4905      	ldr	r1, [pc, #20]	; (794 <uart0_getc+0x30>)
 77e:	600b      	str	r3, [r1, #0]
	RxBuff0.ct--;
 780:	8893      	ldrh	r3, [r2, #4]
 782:	3b01      	subs	r3, #1
 784:	041b      	lsls	r3, r3, #16
 786:	0c1b      	lsrs	r3, r3, #16
 788:	8093      	strh	r3, [r2, #4]
	U0IER = 0x07;	/* Reenable interrupt */
 78a:	2307      	movs	r3, #7
 78c:	600b      	str	r3, [r1, #0]

	return d;
}
 78e:	4770      	bx	lr
 790:	4000000c 	.word	0x4000000c
 794:	e000c004 	.word	0xe000c004

00000798 <uart0_putc>:


void uart0_putc (uint8_t d)
{
 798:	b510      	push	{r4, lr}
	int i;

	/* Wait for Tx buffer ready */
	while (TxBuff0.ct >= UART0_TXB) ;
 79a:	4b10      	ldr	r3, [pc, #64]	; (7dc <uart0_putc+0x44>)
 79c:	3306      	adds	r3, #6
 79e:	889a      	ldrh	r2, [r3, #4]
 7a0:	2a7f      	cmp	r2, #127	; 0x7f
 7a2:	d8fa      	bhi.n	79a <uart0_putc+0x2>

	U0IER = 0x05;		/* Disable Tx Interrupt */
 7a4:	2205      	movs	r2, #5
 7a6:	490e      	ldr	r1, [pc, #56]	; (7e0 <uart0_putc+0x48>)
 7a8:	600a      	str	r2, [r1, #0]
	if (TxBuff0.act) {
 7aa:	88da      	ldrh	r2, [r3, #6]
 7ac:	2a00      	cmp	r2, #0
 7ae:	d00c      	beq.n	7ca <uart0_putc+0x32>
		i = TxBuff0.wi;	/* Put a byte into Tx byffer */
 7b0:	885a      	ldrh	r2, [r3, #2]
		TxBuff0.buff[i++] = d;
 7b2:	189c      	adds	r4, r3, r2
 7b4:	7220      	strb	r0, [r4, #8]
		TxBuff0.wi = i % UART0_TXB;
 7b6:	207f      	movs	r0, #127	; 0x7f
	while (TxBuff0.ct >= UART0_TXB) ;

	U0IER = 0x05;		/* Disable Tx Interrupt */
	if (TxBuff0.act) {
		i = TxBuff0.wi;	/* Put a byte into Tx byffer */
		TxBuff0.buff[i++] = d;
 7b8:	3201      	adds	r2, #1
		TxBuff0.wi = i % UART0_TXB;
 7ba:	4002      	ands	r2, r0
 7bc:	805a      	strh	r2, [r3, #2]
		TxBuff0.ct++;
 7be:	889a      	ldrh	r2, [r3, #4]
 7c0:	3201      	adds	r2, #1
 7c2:	0412      	lsls	r2, r2, #16
 7c4:	0c12      	lsrs	r2, r2, #16
 7c6:	809a      	strh	r2, [r3, #4]
 7c8:	e003      	b.n	7d2 <uart0_putc+0x3a>
	} else {
		U0THR = d;		/* Trigger Tx sequense */
 7ca:	4a06      	ldr	r2, [pc, #24]	; (7e4 <uart0_putc+0x4c>)
 7cc:	6010      	str	r0, [r2, #0]
		TxBuff0.act = 1;
 7ce:	2201      	movs	r2, #1
 7d0:	80da      	strh	r2, [r3, #6]
	}
	U0IER = 0x07;		/* Reenable Tx Interrupt */
 7d2:	2307      	movs	r3, #7
 7d4:	600b      	str	r3, [r1, #0]
}
 7d6:	bc10      	pop	{r4}
 7d8:	bc01      	pop	{r0}
 7da:	4700      	bx	r0
 7dc:	4000008c 	.word	0x4000008c
 7e0:	e000c004 	.word	0xe000c004
 7e4:	e000c000 	.word	0xe000c000

000007e8 <uart0_init>:


void uart0_init (void)
{
  //UART0
  PCONP |= 1 << PCUART0; // Питание на UART0
 7e8:	2108      	movs	r1, #8
 7ea:	4a16      	ldr	r2, [pc, #88]	; (844 <USR_Stack_Size+0x44>)
	U0IER = 0x07;		/* Reenable Tx Interrupt */
}


void uart0_init (void)
{
 7ec:	b508      	push	{r3, lr}
  //UART0
  PCONP |= 1 << PCUART0; // Питание на UART0
 7ee:	6813      	ldr	r3, [r2, #0]
 7f0:	430b      	orrs	r3, r1
 7f2:	6013      	str	r3, [r2, #0]
  //PCLKSEL0 |= 1 << PINSEL_UART0_0;      // PCLK = CCLK
  
  //8 bit lenght word,1 stop bit,disable parity generation,disable breake transmission, enable access to Divisor Latches
  U0LCR |= (1 << word_len_0)|(1 << word_len_1)|(1 << DLAB);
 7f4:	4b14      	ldr	r3, [pc, #80]	; (848 <USR_Stack_Size+0x48>)
 7f6:	681a      	ldr	r2, [r3, #0]
 7f8:	317b      	adds	r1, #123	; 0x7b
 7fa:	430a      	orrs	r2, r1
 7fc:	601a      	str	r2, [r3, #0]
  //f = 18 mGz,Baud = 115200.
  U0FDR = 0xC1;
 7fe:	4a13      	ldr	r2, [pc, #76]	; (84c <USR_Stack_Size+0x4c>)
 800:	313e      	adds	r1, #62	; 0x3e
 802:	6011      	str	r1, [r2, #0]
  U0DLL = 0x09;
 804:	4a12      	ldr	r2, [pc, #72]	; (850 <USR_Stack_Size+0x50>)
 806:	39b8      	subs	r1, #184	; 0xb8
 808:	6011      	str	r1, [r2, #0]
  U0DLM = 0x00;
 80a:	2100      	movs	r1, #0
  U0LCR &= ~(1 << DLAB);//DLAB = 0
 80c:	2080      	movs	r0, #128	; 0x80
  //8 bit lenght word,1 stop bit,disable parity generation,disable breake transmission, enable access to Divisor Latches
  U0LCR |= (1 << word_len_0)|(1 << word_len_1)|(1 << DLAB);
  //f = 18 mGz,Baud = 115200.
  U0FDR = 0xC1;
  U0DLL = 0x09;
  U0DLM = 0x00;
 80e:	4a11      	ldr	r2, [pc, #68]	; (854 <USR_Stack_Size+0x54>)
 810:	6011      	str	r1, [r2, #0]
  U0LCR &= ~(1 << DLAB);//DLAB = 0
 812:	6819      	ldr	r1, [r3, #0]
 814:	4381      	bics	r1, r0
 816:	6019      	str	r1, [r3, #0]
  
  //UART FIFO Нужно ли оно?
  U0FCR |= ((1 << FIFO_Enable )|(1 << RX_FIFO_Reset)|(1 << TX_FIFO_Reset));//Enable and reset TX and RX FIFO
 818:	490f      	ldr	r1, [pc, #60]	; (858 <USR_Stack_Size+0x58>)
 81a:	680b      	ldr	r3, [r1, #0]
 81c:	3879      	subs	r0, #121	; 0x79
 81e:	4303      	orrs	r3, r0
 820:	600b      	str	r3, [r1, #0]
  
  //Настройка ножек мк: P0(2) - TxD,P0(3) - RxD.
  //P0.02,P0.03 - pull-up mode
  PINSEL0 |= (1 << 4)|(1 << 6);
 822:	490e      	ldr	r1, [pc, #56]	; (85c <USR_Stack_Size+0x5c>)
 824:	680b      	ldr	r3, [r1, #0]
 826:	3049      	adds	r0, #73	; 0x49
 828:	4303      	orrs	r3, r0
 82a:	600b      	str	r3, [r1, #0]
  
  //Interrupts
  /* InstallIRQ( UART0_INT, (void *)UART0_INT_Handler, 0x0E); */
  /* U0IER |= ((1 << RBR_Enable )|(1 << THRE_Enable)|(1 << RLS_Enable));[> Enable UART0 interrupt <] */
  U0IER |= (1 << RBR_Enable );/* Enable UART0 interrupt */
 82c:	2101      	movs	r1, #1
 82e:	6813      	ldr	r3, [r2, #0]
 830:	430b      	orrs	r3, r1
 832:	6013      	str	r3, [r2, #0]
	/* [> Enable Tx/Rx/Error interrupts <] */
	RegisterIrq(UART0_IRQn, (void *)Isr_UART0, PRI_LOWEST);
 834:	384a      	subs	r0, #74	; 0x4a
 836:	490a      	ldr	r1, [pc, #40]	; (860 <USR_Stack_Size+0x60>)
 838:	220f      	movs	r2, #15
 83a:	f7ff ff6f 	bl	71c <RegisterIrq>
  
}
 83e:	bc08      	pop	{r3}
 840:	bc01      	pop	{r0}
 842:	4700      	bx	r0
 844:	e01fc0c4 	.word	0xe01fc0c4
 848:	e000c00c 	.word	0xe000c00c
 84c:	e000c028 	.word	0xe000c028
 850:	e000c000 	.word	0xe000c000
 854:	e000c004 	.word	0xe000c004
 858:	e000c008 	.word	0xe000c008
 85c:	e002c000 	.word	0xe002c000
 860:	0000072d 	.word	0x0000072d

00000864 <xputc>:
/*----------------------------------------------*/
/* Put a character                              */
/*----------------------------------------------*/

void xputc (char c)
{
 864:	b510      	push	{r4, lr}
 866:	1e04      	subs	r4, r0, #0
	if (_CR_CRLF && c == '\n') xputc('\r');		/* CR -> CRLF */
 868:	2c0a      	cmp	r4, #10
 86a:	d102      	bne.n	872 <xputc+0xe>
 86c:	200d      	movs	r0, #13
 86e:	f7ff fff9 	bl	864 <xputc>

	if (outptr) {
 872:	4a09      	ldr	r2, [pc, #36]	; (898 <xputc+0x34>)
 874:	6813      	ldr	r3, [r2, #0]
 876:	2b00      	cmp	r3, #0
 878:	d003      	beq.n	882 <xputc+0x1e>
		*outptr++ = (unsigned char)c;
 87a:	1c59      	adds	r1, r3, #1
 87c:	6011      	str	r1, [r2, #0]
 87e:	701c      	strb	r4, [r3, #0]
		return;
 880:	e006      	b.n	890 <xputc+0x2c>
	}

	if (xfunc_out) xfunc_out((unsigned char)c);
 882:	4b06      	ldr	r3, [pc, #24]	; (89c <xputc+0x38>)
 884:	681b      	ldr	r3, [r3, #0]
 886:	2b00      	cmp	r3, #0
 888:	d002      	beq.n	890 <xputc+0x2c>
 88a:	1c20      	adds	r0, r4, #0
 88c:	f000 fa2b 	bl	ce6 <xatoi+0xb2>
}
 890:	bc10      	pop	{r4}
 892:	bc01      	pop	{r0}
 894:	4700      	bx	r0
 896:	46c0      	nop			; (mov r8, r8)
 898:	4000011c 	.word	0x4000011c
 89c:	40000128 	.word	0x40000128

000008a0 <xputs>:
/*----------------------------------------------*/

void xputs (					/* Put a string to the default device */
	const char* str				/* Pointer to the string */
)
{
 8a0:	b510      	push	{r4, lr}
 8a2:	1c04      	adds	r4, r0, #0
	while (*str)
 8a4:	7820      	ldrb	r0, [r4, #0]
 8a6:	2800      	cmp	r0, #0
 8a8:	d003      	beq.n	8b2 <xputs+0x12>
		xputc(*str++);
 8aa:	3401      	adds	r4, #1
 8ac:	f7ff ffda 	bl	864 <xputc>
 8b0:	e7f8      	b.n	8a4 <xputs+0x4>
}
 8b2:	bc10      	pop	{r4}
 8b4:	bc01      	pop	{r0}
 8b6:	4700      	bx	r0

000008b8 <xvprintf>:
static
void xvprintf (
	const char*	fmt,	/* Pointer to the format string */
	va_list arp			/* Pointer to arguments */
)
{
 8b8:	b5f0      	push	{r4, r5, r6, r7, lr}
 8ba:	1c0c      	adds	r4, r1, #0
 8bc:	b08b      	sub	sp, #44	; 0x2c
 8be:	9000      	str	r0, [sp, #0]
	unsigned long v;
	char s[16], c, d, *p;


	for (;;) {
		c = *fmt++;					/* Get a char */
 8c0:	9b00      	ldr	r3, [sp, #0]
 8c2:	7818      	ldrb	r0, [r3, #0]
		if (!c) break;				/* End of format? */
 8c4:	2800      	cmp	r0, #0
 8c6:	d100      	bne.n	8ca <xvprintf+0x12>
 8c8:	e0e1      	b.n	a8e <Stack_Size+0x7e>
		if (c != '%') {				/* Pass through it if not a % sequense */
 8ca:	2825      	cmp	r0, #37	; 0x25
 8cc:	d002      	beq.n	8d4 <xvprintf+0x1c>
	unsigned long v;
	char s[16], c, d, *p;


	for (;;) {
		c = *fmt++;					/* Get a char */
 8ce:	3301      	adds	r3, #1
 8d0:	9300      	str	r3, [sp, #0]
 8d2:	e07e      	b.n	9d2 <xvprintf+0x11a>
		if (!c) break;				/* End of format? */
		if (c != '%') {				/* Pass through it if not a % sequense */
			xputc(c); continue;
		}
		f = 0;
		c = *fmt++;					/* Get first char of the sequense */
 8d4:	9b00      	ldr	r3, [sp, #0]
 8d6:	785e      	ldrb	r6, [r3, #1]
		if (c == '0') {				/* Flag: '0' padded */
 8d8:	2e30      	cmp	r6, #48	; 0x30
 8da:	d104      	bne.n	8e6 <xvprintf+0x2e>
			f = 1; c = *fmt++;
 8dc:	9a00      	ldr	r2, [sp, #0]
 8de:	3303      	adds	r3, #3
 8e0:	7896      	ldrb	r6, [r2, #2]
 8e2:	2201      	movs	r2, #1
 8e4:	e009      	b.n	8fa <xvprintf+0x42>
		} else {
			if (c == '-') {			/* Flag: left justified */
				f = 2; c = *fmt++;
 8e6:	9b00      	ldr	r3, [sp, #0]
		f = 0;
		c = *fmt++;					/* Get first char of the sequense */
		if (c == '0') {				/* Flag: '0' padded */
			f = 1; c = *fmt++;
		} else {
			if (c == '-') {			/* Flag: left justified */
 8e8:	2e2d      	cmp	r6, #45	; 0x2d
 8ea:	d002      	beq.n	8f2 <xvprintf+0x3a>
		if (!c) break;				/* End of format? */
		if (c != '%') {				/* Pass through it if not a % sequense */
			xputc(c); continue;
		}
		f = 0;
		c = *fmt++;					/* Get first char of the sequense */
 8ec:	3302      	adds	r3, #2
		c = *fmt++;					/* Get a char */
		if (!c) break;				/* End of format? */
		if (c != '%') {				/* Pass through it if not a % sequense */
			xputc(c); continue;
		}
		f = 0;
 8ee:	2200      	movs	r2, #0
 8f0:	e003      	b.n	8fa <xvprintf+0x42>
		c = *fmt++;					/* Get first char of the sequense */
		if (c == '0') {				/* Flag: '0' padded */
			f = 1; c = *fmt++;
		} else {
			if (c == '-') {			/* Flag: left justified */
				f = 2; c = *fmt++;
 8f2:	9a00      	ldr	r2, [sp, #0]
 8f4:	7896      	ldrb	r6, [r2, #2]
 8f6:	2202      	movs	r2, #2
 8f8:	3303      	adds	r3, #3
 8fa:	9201      	str	r2, [sp, #4]
			}
		}
		for (w = 0; c >= '0' && c <= '9'; c = *fmt++)	/* Minimum width */
 8fc:	2200      	movs	r2, #0
 8fe:	9203      	str	r2, [sp, #12]
 900:	1c32      	adds	r2, r6, #0
 902:	3a30      	subs	r2, #48	; 0x30
 904:	9300      	str	r3, [sp, #0]
 906:	2a09      	cmp	r2, #9
 908:	d808      	bhi.n	91c <xvprintf+0x64>
			w = w * 10 + c - '0';
 90a:	220a      	movs	r2, #10
 90c:	9903      	ldr	r1, [sp, #12]
 90e:	4351      	muls	r1, r2
 910:	198e      	adds	r6, r1, r6
 912:	3e30      	subs	r6, #48	; 0x30
 914:	9603      	str	r6, [sp, #12]
		} else {
			if (c == '-') {			/* Flag: left justified */
				f = 2; c = *fmt++;
			}
		}
		for (w = 0; c >= '0' && c <= '9'; c = *fmt++)	/* Minimum width */
 916:	781e      	ldrb	r6, [r3, #0]
 918:	3301      	adds	r3, #1
 91a:	e7f1      	b.n	900 <xvprintf+0x48>
			w = w * 10 + c - '0';
		if (c == 'l' || c == 'L') {	/* Prefix: Size is long int */
 91c:	2220      	movs	r2, #32
 91e:	1c31      	adds	r1, r6, #0
 920:	4391      	bics	r1, r2
 922:	1e0a      	subs	r2, r1, #0
 924:	2a4c      	cmp	r2, #76	; 0x4c
 926:	d107      	bne.n	938 <xvprintf+0x80>
			f |= 4; c = *fmt++;
 928:	9901      	ldr	r1, [sp, #4]
 92a:	3a48      	subs	r2, #72	; 0x48
 92c:	4311      	orrs	r1, r2
 92e:	1c1a      	adds	r2, r3, #0
 930:	3201      	adds	r2, #1
 932:	9101      	str	r1, [sp, #4]
 934:	9200      	str	r2, [sp, #0]
 936:	781e      	ldrb	r6, [r3, #0]
		}
		if (!c) break;				/* End of format? */
 938:	2e00      	cmp	r6, #0
 93a:	d100      	bne.n	93e <xvprintf+0x86>
 93c:	e0a7      	b.n	a8e <Stack_Size+0x7e>
 93e:	1e33      	subs	r3, r6, #0
		d = c;
		if (d >= 'a') d -= 0x20;
 940:	2b60      	cmp	r3, #96	; 0x60
 942:	d902      	bls.n	94a <xvprintf+0x92>
 944:	3b20      	subs	r3, #32
 946:	061b      	lsls	r3, r3, #24
 948:	0e1b      	lsrs	r3, r3, #24
		switch (d) {				/* Type is... */
 94a:	2b4f      	cmp	r3, #79	; 0x4f
 94c:	d014      	beq.n	978 <xvprintf+0xc0>
 94e:	d808      	bhi.n	962 <xvprintf+0xaa>
 950:	2b43      	cmp	r3, #67	; 0x43
 952:	d033      	beq.n	9bc <xvprintf+0x104>
 954:	2b44      	cmp	r3, #68	; 0x44
 956:	d040      	beq.n	9da <xvprintf+0x122>
			while (j++ < w) xputc(' ');
			continue;
		case 'C' :					/* Character */
			xputc((char)va_arg(arp, int)); continue;
		case 'B' :					/* Binary */
			r = 2; break;
 958:	2202      	movs	r2, #2
 95a:	9204      	str	r2, [sp, #16]
			f |= 4; c = *fmt++;
		}
		if (!c) break;				/* End of format? */
		d = c;
		if (d >= 'a') d -= 0x20;
		switch (d) {				/* Type is... */
 95c:	2b42      	cmp	r3, #66	; 0x42
 95e:	d03e      	beq.n	9de <xvprintf+0x126>
 960:	e036      	b.n	9d0 <xvprintf+0x118>
 962:	2b55      	cmp	r3, #85	; 0x55
 964:	d039      	beq.n	9da <xvprintf+0x122>
 966:	2b58      	cmp	r3, #88	; 0x58
 968:	d030      	beq.n	9cc <xvprintf+0x114>
 96a:	2b53      	cmp	r3, #83	; 0x53
 96c:	d130      	bne.n	9d0 <xvprintf+0x118>
		case 'S' :					/* String */
			p = va_arg(arp, char*);
 96e:	6825      	ldr	r5, [r4, #0]
 970:	1d23      	adds	r3, r4, #4
 972:	9302      	str	r3, [sp, #8]
			for (j = 0; p[j]; j++) ;
 974:	1c2b      	adds	r3, r5, #0
 976:	e001      	b.n	97c <xvprintf+0xc4>
		case 'C' :					/* Character */
			xputc((char)va_arg(arp, int)); continue;
		case 'B' :					/* Binary */
			r = 2; break;
		case 'O' :					/* Octal */
			r = 8; break;
 978:	2208      	movs	r2, #8
 97a:	e02f      	b.n	9dc <xvprintf+0x124>
 97c:	1b5c      	subs	r4, r3, r5
 97e:	3301      	adds	r3, #1
 980:	1e5a      	subs	r2, r3, #1
		d = c;
		if (d >= 'a') d -= 0x20;
		switch (d) {				/* Type is... */
		case 'S' :					/* String */
			p = va_arg(arp, char*);
			for (j = 0; p[j]; j++) ;
 982:	7812      	ldrb	r2, [r2, #0]
 984:	2a00      	cmp	r2, #0
 986:	d1f9      	bne.n	97c <xvprintf+0xc4>
			while (!(f & 2) && j++ < w) xputc(' ');
 988:	9b01      	ldr	r3, [sp, #4]
 98a:	079b      	lsls	r3, r3, #30
 98c:	d409      	bmi.n	9a2 <xvprintf+0xea>
 98e:	9b03      	ldr	r3, [sp, #12]
 990:	1c66      	adds	r6, r4, #1
 992:	429c      	cmp	r4, r3
 994:	d204      	bcs.n	9a0 <xvprintf+0xe8>
 996:	2020      	movs	r0, #32
 998:	f7ff ff64 	bl	864 <xputc>
 99c:	1c34      	adds	r4, r6, #0
 99e:	e7f3      	b.n	988 <xvprintf+0xd0>
 9a0:	1c34      	adds	r4, r6, #0
			xputs(p);
 9a2:	1c28      	adds	r0, r5, #0
 9a4:	f7ff ff7c 	bl	8a0 <xputs>
			while (j++ < w) xputc(' ');
 9a8:	9b03      	ldr	r3, [sp, #12]
 9aa:	429c      	cmp	r4, r3
 9ac:	d301      	bcc.n	9b2 <xvprintf+0xfa>
		case 'U' :					/* Unsigned decimal */
			r = 10; break;
		case 'X' :					/* Hexdecimal */
			r = 16; break;
		default:					/* Unknown type (passthrough) */
			xputc(c); continue;
 9ae:	9c02      	ldr	r4, [sp, #8]
 9b0:	e786      	b.n	8c0 <xvprintf+0x8>
		case 'S' :					/* String */
			p = va_arg(arp, char*);
			for (j = 0; p[j]; j++) ;
			while (!(f & 2) && j++ < w) xputc(' ');
			xputs(p);
			while (j++ < w) xputc(' ');
 9b2:	2020      	movs	r0, #32
 9b4:	f7ff ff56 	bl	864 <xputc>
 9b8:	3401      	adds	r4, #1
 9ba:	e7f5      	b.n	9a8 <xvprintf+0xf0>
			continue;
		case 'C' :					/* Character */
			xputc((char)va_arg(arp, int)); continue;
 9bc:	6820      	ldr	r0, [r4, #0]
 9be:	0600      	lsls	r0, r0, #24
 9c0:	1d23      	adds	r3, r4, #4
 9c2:	0e00      	lsrs	r0, r0, #24
 9c4:	9302      	str	r3, [sp, #8]
 9c6:	f7ff ff4d 	bl	864 <xputc>
 9ca:	e7f0      	b.n	9ae <xvprintf+0xf6>
			r = 8; break;
		case 'D' :					/* Signed decimal */
		case 'U' :					/* Unsigned decimal */
			r = 10; break;
		case 'X' :					/* Hexdecimal */
			r = 16; break;
 9cc:	2210      	movs	r2, #16
 9ce:	e005      	b.n	9dc <xvprintf+0x124>
		default:					/* Unknown type (passthrough) */
			xputc(c); continue;
 9d0:	1c30      	adds	r0, r6, #0
 9d2:	f7ff ff47 	bl	864 <xputc>
 9d6:	9402      	str	r4, [sp, #8]
 9d8:	e7e9      	b.n	9ae <xvprintf+0xf6>
			r = 2; break;
		case 'O' :					/* Octal */
			r = 8; break;
		case 'D' :					/* Signed decimal */
		case 'U' :					/* Unsigned decimal */
			r = 10; break;
 9da:	220a      	movs	r2, #10
 9dc:	9204      	str	r2, [sp, #16]
 9de:	1d22      	adds	r2, r4, #4
		default:					/* Unknown type (passthrough) */
			xputc(c); continue;
		}

		/* Get an argument and put it in numeral */
		v = (f & 4) ? va_arg(arp, long) : ((d == 'D') ? (long)va_arg(arp, int) : (long)va_arg(arp, unsigned int));
 9e0:	9202      	str	r2, [sp, #8]
 9e2:	6825      	ldr	r5, [r4, #0]
 9e4:	2b44      	cmp	r3, #68	; 0x44
 9e6:	d106      	bne.n	9f6 <xvprintf+0x13e>
		if (d == 'D' && (v & 0x80000000)) {
 9e8:	2d00      	cmp	r5, #0
 9ea:	da04      	bge.n	9f6 <xvprintf+0x13e>
			v = 0 - v;
			f |= 8;
 9ec:	2308      	movs	r3, #8
 9ee:	9a01      	ldr	r2, [sp, #4]
 9f0:	431a      	orrs	r2, r3
 9f2:	9201      	str	r2, [sp, #4]
		}

		/* Get an argument and put it in numeral */
		v = (f & 4) ? va_arg(arp, long) : ((d == 'D') ? (long)va_arg(arp, int) : (long)va_arg(arp, unsigned int));
		if (d == 'D' && (v & 0x80000000)) {
			v = 0 - v;
 9f4:	426d      	negs	r5, r5
			f |= 8;
		}
		i = 0;
 9f6:	2300      	movs	r3, #0
 9f8:	9305      	str	r3, [sp, #20]
		do {
			d = (char)(v % r); v /= r;
 9fa:	1c28      	adds	r0, r5, #0
 9fc:	9904      	ldr	r1, [sp, #16]
 9fe:	f000 fa8b 	bl	f18 <____aeabi_uidivmod_from_thumb>
 a02:	1c28      	adds	r0, r5, #0
 a04:	060f      	lsls	r7, r1, #24
 a06:	1c0c      	adds	r4, r1, #0
 a08:	9904      	ldr	r1, [sp, #16]
 a0a:	f000 fa89 	bl	f20 <____aeabi_uidiv_from_thumb>
 a0e:	0e3f      	lsrs	r7, r7, #24
 a10:	1c05      	adds	r5, r0, #0
			if (d > 9) d += (c == 'x') ? 0x27 : 0x07;
 a12:	2c09      	cmp	r4, #9
 a14:	d906      	bls.n	a24 <Stack_Size+0x14>
 a16:	2327      	movs	r3, #39	; 0x27
 a18:	2e78      	cmp	r6, #120	; 0x78
 a1a:	d000      	beq.n	a1e <Stack_Size+0xe>
 a1c:	3b20      	subs	r3, #32
 a1e:	19df      	adds	r7, r3, r7
 a20:	063f      	lsls	r7, r7, #24
 a22:	0e3f      	lsrs	r7, r7, #24
			s[i++] = d + '0';
 a24:	9b05      	ldr	r3, [sp, #20]
 a26:	9a05      	ldr	r2, [sp, #20]
 a28:	1c5c      	adds	r4, r3, #1
 a2a:	3730      	adds	r7, #48	; 0x30
 a2c:	ab06      	add	r3, sp, #24
 a2e:	549f      	strb	r7, [r3, r2]
		} while (v && i < sizeof(s));
 a30:	2d00      	cmp	r5, #0
 a32:	d003      	beq.n	a3c <Stack_Size+0x2c>
 a34:	2c10      	cmp	r4, #16
 a36:	d001      	beq.n	a3c <Stack_Size+0x2c>
 a38:	9405      	str	r4, [sp, #20]
 a3a:	e7de      	b.n	9fa <xvprintf+0x142>
		if (f & 8) s[i++] = '-';
 a3c:	9b01      	ldr	r3, [sp, #4]
 a3e:	071b      	lsls	r3, r3, #28
 a40:	d503      	bpl.n	a4a <Stack_Size+0x3a>
 a42:	232d      	movs	r3, #45	; 0x2d
 a44:	aa06      	add	r2, sp, #24
 a46:	5513      	strb	r3, [r2, r4]
 a48:	3401      	adds	r4, #1
		j = i; d = (f & 1) ? '0' : ' ';
 a4a:	9b01      	ldr	r3, [sp, #4]
 a4c:	2730      	movs	r7, #48	; 0x30
 a4e:	07db      	lsls	r3, r3, #31
 a50:	d400      	bmi.n	a54 <Stack_Size+0x44>
 a52:	3f10      	subs	r7, #16
 a54:	1c25      	adds	r5, r4, #0
		while (!(f & 2) && j++ < w) xputc(d);
 a56:	9b01      	ldr	r3, [sp, #4]
 a58:	079b      	lsls	r3, r3, #30
 a5a:	d409      	bmi.n	a70 <Stack_Size+0x60>
 a5c:	9b03      	ldr	r3, [sp, #12]
 a5e:	1c6e      	adds	r6, r5, #1
 a60:	429d      	cmp	r5, r3
 a62:	d204      	bcs.n	a6e <Stack_Size+0x5e>
 a64:	1c38      	adds	r0, r7, #0
 a66:	f7ff fefd 	bl	864 <xputc>
 a6a:	1c35      	adds	r5, r6, #0
 a6c:	e7f3      	b.n	a56 <Stack_Size+0x46>
 a6e:	1c35      	adds	r5, r6, #0
		do xputc(s[--i]); while(i);
 a70:	3c01      	subs	r4, #1
 a72:	ab06      	add	r3, sp, #24
 a74:	5d18      	ldrb	r0, [r3, r4]
 a76:	f7ff fef5 	bl	864 <xputc>
 a7a:	2c00      	cmp	r4, #0
 a7c:	d1f8      	bne.n	a70 <Stack_Size+0x60>
		while (j++ < w) xputc(' ');
 a7e:	9b03      	ldr	r3, [sp, #12]
 a80:	429d      	cmp	r5, r3
 a82:	d294      	bcs.n	9ae <xvprintf+0xf6>
 a84:	2020      	movs	r0, #32
 a86:	f7ff feed 	bl	864 <xputc>
 a8a:	3501      	adds	r5, #1
 a8c:	e7f7      	b.n	a7e <Stack_Size+0x6e>
	}
}
 a8e:	b00b      	add	sp, #44	; 0x2c
 a90:	bcf0      	pop	{r4, r5, r6, r7}
 a92:	bc01      	pop	{r0}
 a94:	4700      	bx	r0

00000a96 <xfputs>:
)
{
	void (*pf)(unsigned char);


	pf = xfunc_out;		/* Save current output device */
 a96:	4b08      	ldr	r3, [pc, #32]	; (ab8 <xfputs+0x22>)

void xfputs (					/* Put a string to the specified device */
	void(*func)(unsigned char),	/* Pointer to the output function */
	const char*	str				/* Pointer to the string */
)
{
 a98:	b570      	push	{r4, r5, r6, lr}
 a9a:	1c0d      	adds	r5, r1, #0
 a9c:	1c1c      	adds	r4, r3, #0
	void (*pf)(unsigned char);


	pf = xfunc_out;		/* Save current output device */
 a9e:	681e      	ldr	r6, [r3, #0]
	xfunc_out = func;	/* Switch output to specified device */
 aa0:	6018      	str	r0, [r3, #0]
	while (*str)		/* Put the string */
 aa2:	7828      	ldrb	r0, [r5, #0]
 aa4:	2800      	cmp	r0, #0
 aa6:	d003      	beq.n	ab0 <xfputs+0x1a>
		xputc(*str++);
 aa8:	3501      	adds	r5, #1
 aaa:	f7ff fedb 	bl	864 <xputc>
 aae:	e7f8      	b.n	aa2 <xfputs+0xc>
	xfunc_out = pf;		/* Restore output device */
 ab0:	6026      	str	r6, [r4, #0]
}
 ab2:	bc70      	pop	{r4, r5, r6}
 ab4:	bc01      	pop	{r0}
 ab6:	4700      	bx	r0
 ab8:	40000128 	.word	0x40000128

00000abc <xprintf>:

void xprintf (			/* Put a formatted string to the default device */
	const char*	fmt,	/* Pointer to the format string */
	...					/* Optional arguments */
)
{
 abc:	b40f      	push	{r0, r1, r2, r3}
 abe:	b507      	push	{r0, r1, r2, lr}
 ac0:	a904      	add	r1, sp, #16
 ac2:	c901      	ldmia	r1!, {r0}
	va_list arp;


	va_start(arp, fmt);
 ac4:	9101      	str	r1, [sp, #4]
	xvprintf(fmt, arp);
 ac6:	f7ff fef7 	bl	8b8 <xvprintf>
	va_end(arp);
}
 aca:	b003      	add	sp, #12
 acc:	bc08      	pop	{r3}
 ace:	b004      	add	sp, #16
 ad0:	4718      	bx	r3

00000ad2 <xsprintf>:
void xsprintf (			/* Put a formatted string to the memory */
	char* buff,			/* Pointer to the output buffer */
	const char*	fmt,	/* Pointer to the format string */
	...					/* Optional arguments */
)
{
 ad2:	b40e      	push	{r1, r2, r3}
 ad4:	b517      	push	{r0, r1, r2, r4, lr}
 ad6:	a905      	add	r1, sp, #20
 ad8:	c908      	ldmia	r1!, {r3}
	va_list arp;


	outptr = buff;		/* Switch destination for memory */
 ada:	4c07      	ldr	r4, [pc, #28]	; (af8 <xsprintf+0x26>)
 adc:	6020      	str	r0, [r4, #0]

	va_start(arp, fmt);
	xvprintf(fmt, arp);
 ade:	1c18      	adds	r0, r3, #0
	va_list arp;


	outptr = buff;		/* Switch destination for memory */

	va_start(arp, fmt);
 ae0:	9101      	str	r1, [sp, #4]
	xvprintf(fmt, arp);
 ae2:	f7ff fee9 	bl	8b8 <xvprintf>
	va_end(arp);

	*outptr = 0;		/* Terminate output string with a \0 */
 ae6:	2300      	movs	r3, #0
 ae8:	6822      	ldr	r2, [r4, #0]
 aea:	7013      	strb	r3, [r2, #0]
	outptr = 0;			/* Switch destination for device */
 aec:	6023      	str	r3, [r4, #0]
}
 aee:	bc17      	pop	{r0, r1, r2, r4}
 af0:	bc08      	pop	{r3}
 af2:	b003      	add	sp, #12
 af4:	4718      	bx	r3
 af6:	46c0      	nop			; (mov r8, r8)
 af8:	4000011c 	.word	0x4000011c

00000afc <xfprintf>:
void xfprintf (					/* Put a formatted string to the specified device */
	void(*func)(unsigned char),	/* Pointer to the output function */
	const char*	fmt,			/* Pointer to the format string */
	...							/* Optional arguments */
)
{
 afc:	b40e      	push	{r1, r2, r3}
 afe:	b533      	push	{r0, r1, r4, r5, lr}
	va_list arp;
	void (*pf)(unsigned char);


	pf = xfunc_out;		/* Save current output device */
 b00:	4c06      	ldr	r4, [pc, #24]	; (b1c <xfprintf+0x20>)
void xfprintf (					/* Put a formatted string to the specified device */
	void(*func)(unsigned char),	/* Pointer to the output function */
	const char*	fmt,			/* Pointer to the format string */
	...							/* Optional arguments */
)
{
 b02:	a905      	add	r1, sp, #20
 b04:	c908      	ldmia	r1!, {r3}
	va_list arp;
	void (*pf)(unsigned char);


	pf = xfunc_out;		/* Save current output device */
 b06:	6825      	ldr	r5, [r4, #0]
	xfunc_out = func;	/* Switch output to specified device */
 b08:	6020      	str	r0, [r4, #0]

	va_start(arp, fmt);
	xvprintf(fmt, arp);
 b0a:	1c18      	adds	r0, r3, #0


	pf = xfunc_out;		/* Save current output device */
	xfunc_out = func;	/* Switch output to specified device */

	va_start(arp, fmt);
 b0c:	9101      	str	r1, [sp, #4]
	xvprintf(fmt, arp);
 b0e:	f7ff fed3 	bl	8b8 <xvprintf>
	va_end(arp);

	xfunc_out = pf;		/* Restore output device */
 b12:	6025      	str	r5, [r4, #0]
}
 b14:	bc33      	pop	{r0, r1, r4, r5}
 b16:	bc08      	pop	{r3}
 b18:	b003      	add	sp, #12
 b1a:	4718      	bx	r3
 b1c:	40000128 	.word	0x40000128

00000b20 <put_dump>:
	const void* buff,		/* Pointer to the array to be dumped */
	unsigned long addr,		/* Heading address value */
	int len,				/* Number of items to be dumped */
	int width				/* Size of the items (DW_CHAR, DW_SHORT, DW_LONG) */
)
{
 b20:	b570      	push	{r4, r5, r6, lr}
 b22:	1c04      	adds	r4, r0, #0
	const unsigned char *bp;
	const unsigned short *sp;
	const unsigned long *lp;


	xprintf("%08lX:", addr);		/* address */
 b24:	481f      	ldr	r0, [pc, #124]	; (ba4 <put_dump+0x84>)
	const void* buff,		/* Pointer to the array to be dumped */
	unsigned long addr,		/* Heading address value */
	int len,				/* Number of items to be dumped */
	int width				/* Size of the items (DW_CHAR, DW_SHORT, DW_LONG) */
)
{
 b26:	1c1e      	adds	r6, r3, #0
 b28:	1c15      	adds	r5, r2, #0
	const unsigned char *bp;
	const unsigned short *sp;
	const unsigned long *lp;


	xprintf("%08lX:", addr);		/* address */
 b2a:	f7ff ffc7 	bl	abc <xprintf>

	switch (width) {
 b2e:	2e02      	cmp	r6, #2
 b30:	d01f      	beq.n	b72 <put_dump+0x52>
 b32:	2e04      	cmp	r6, #4
 b34:	d026      	beq.n	b84 <put_dump+0x64>
 b36:	2e01      	cmp	r6, #1
 b38:	d12b      	bne.n	b92 <put_dump+0x72>
 b3a:	1c26      	adds	r6, r4, #0
 b3c:	1b33      	subs	r3, r6, r4
	case DW_CHAR:
		bp = buff;
		for (i = 0; i < len; i++)		/* Hexdecimal dump */
 b3e:	42ab      	cmp	r3, r5
 b40:	da05      	bge.n	b4e <put_dump+0x2e>
			xprintf(" %02X", bp[i]);
 b42:	7831      	ldrb	r1, [r6, #0]
 b44:	4818      	ldr	r0, [pc, #96]	; (ba8 <put_dump+0x88>)
 b46:	f7ff ffb9 	bl	abc <xprintf>
 b4a:	3601      	adds	r6, #1
 b4c:	e7f6      	b.n	b3c <put_dump+0x1c>
		xputc(' ');
 b4e:	2020      	movs	r0, #32
 b50:	f7ff fe88 	bl	864 <xputc>
		for (i = 0; i < len; i++)		/* ASCII dump */
 b54:	1c26      	adds	r6, r4, #0
 b56:	1b33      	subs	r3, r6, r4
 b58:	42ab      	cmp	r3, r5
 b5a:	da1a      	bge.n	b92 <put_dump+0x72>
			xputc((bp[i] >= ' ' && bp[i] <= '~') ? bp[i] : '.');
 b5c:	7833      	ldrb	r3, [r6, #0]
 b5e:	1c1a      	adds	r2, r3, #0
 b60:	3a20      	subs	r2, #32
 b62:	202e      	movs	r0, #46	; 0x2e
 b64:	2a5e      	cmp	r2, #94	; 0x5e
 b66:	d800      	bhi.n	b6a <put_dump+0x4a>
 b68:	1c18      	adds	r0, r3, #0
 b6a:	f7ff fe7b 	bl	864 <xputc>
 b6e:	3601      	adds	r6, #1
 b70:	e7f1      	b.n	b56 <put_dump+0x36>
		break;
	case DW_SHORT:
		sp = buff;
		do								/* Hexdecimal dump */
			xprintf(" %04X", *sp++);
 b72:	8821      	ldrh	r1, [r4, #0]
 b74:	480d      	ldr	r0, [pc, #52]	; (bac <put_dump+0x8c>)
		while (--len);
 b76:	3d01      	subs	r5, #1
			xputc((bp[i] >= ' ' && bp[i] <= '~') ? bp[i] : '.');
		break;
	case DW_SHORT:
		sp = buff;
		do								/* Hexdecimal dump */
			xprintf(" %04X", *sp++);
 b78:	f7ff ffa0 	bl	abc <xprintf>
 b7c:	3402      	adds	r4, #2
		while (--len);
 b7e:	2d00      	cmp	r5, #0
 b80:	d1f7      	bne.n	b72 <put_dump+0x52>
 b82:	e006      	b.n	b92 <put_dump+0x72>
		break;
	case DW_LONG:
		lp = buff;
		do								/* Hexdecimal dump */
			xprintf(" %08LX", *lp++);
 b84:	480a      	ldr	r0, [pc, #40]	; (bb0 <put_dump+0x90>)
 b86:	cc02      	ldmia	r4!, {r1}
		while (--len);
 b88:	3d01      	subs	r5, #1
		while (--len);
		break;
	case DW_LONG:
		lp = buff;
		do								/* Hexdecimal dump */
			xprintf(" %08LX", *lp++);
 b8a:	f7ff ff97 	bl	abc <xprintf>
		while (--len);
 b8e:	2d00      	cmp	r5, #0
 b90:	d1f8      	bne.n	b84 <put_dump+0x64>
		break;
	}

#if !_LF_CRLF
	xputc('\r');
 b92:	200d      	movs	r0, #13
 b94:	f7ff fe66 	bl	864 <xputc>
#endif
	xputc('\n');
 b98:	200a      	movs	r0, #10
 b9a:	f7ff fe63 	bl	864 <xputc>
}
 b9e:	bc70      	pop	{r4, r5, r6}
 ba0:	bc01      	pop	{r0}
 ba2:	4700      	bx	r0
 ba4:	00000f49 	.word	0x00000f49
 ba8:	00000f50 	.word	0x00000f50
 bac:	00000f56 	.word	0x00000f56
 bb0:	00000f5c 	.word	0x00000f5c

00000bb4 <xgets>:

int xgets (		/* 0:End of stream, 1:A line arrived */
	char* buff,	/* Pointer to the buffer */
	int len		/* Buffer length */
)
{
 bb4:	b5f7      	push	{r0, r1, r2, r4, r5, r6, r7, lr}
 bb6:	2400      	movs	r4, #0
	int c, i;


	if (!xfunc_in) return 0;		/* No input function specified */
 bb8:	4d16      	ldr	r5, [pc, #88]	; (c14 <xgets+0x60>)
 bba:	682b      	ldr	r3, [r5, #0]

int xgets (		/* 0:End of stream, 1:A line arrived */
	char* buff,	/* Pointer to the buffer */
	int len		/* Buffer length */
)
{
 bbc:	1c06      	adds	r6, r0, #0
 bbe:	9101      	str	r1, [sp, #4]
	int c, i;


	if (!xfunc_in) return 0;		/* No input function specified */
 bc0:	42a3      	cmp	r3, r4
 bc2:	d10a      	bne.n	bda <xgets+0x26>
 bc4:	2000      	movs	r0, #0
 bc6:	e022      	b.n	c0e <xgets+0x5a>

	i = 0;
	for (;;) {
		c = xfunc_in();				/* Get a char from the incoming stream */
		if (!c) return 0;			/* End of stream? */
		if (c == '\r') break;		/* End of line? */
 bc8:	280d      	cmp	r0, #13
 bca:	d018      	beq.n	bfe <xgets+0x4a>
		if (c == '\b' && i) {		/* Back space? */
 bcc:	2808      	cmp	r0, #8
 bce:	d10a      	bne.n	be6 <xgets+0x32>
 bd0:	2c00      	cmp	r4, #0
 bd2:	d002      	beq.n	bda <xgets+0x26>
			i--;
 bd4:	3c01      	subs	r4, #1
#if _LINE_ECHO
			xputc(c);
 bd6:	f7ff fe45 	bl	864 <xputc>

	if (!xfunc_in) return 0;		/* No input function specified */

	i = 0;
	for (;;) {
		c = xfunc_in();				/* Get a char from the incoming stream */
 bda:	682b      	ldr	r3, [r5, #0]
 bdc:	f000 f883 	bl	ce6 <xatoi+0xb2>
		if (!c) return 0;			/* End of stream? */
 be0:	2800      	cmp	r0, #0
 be2:	d1f1      	bne.n	bc8 <xgets+0x14>
 be4:	e7ee      	b.n	bc4 <xgets+0x10>
#if _LINE_ECHO
			xputc(c);
#endif
			continue;
		}
		if (c >= ' ' && i < len - 1) {	/* Visible chars */
 be6:	281f      	cmp	r0, #31
 be8:	ddf7      	ble.n	bda <xgets+0x26>
 bea:	9b01      	ldr	r3, [sp, #4]
 bec:	3b01      	subs	r3, #1
 bee:	429c      	cmp	r4, r3
 bf0:	daf3      	bge.n	bda <xgets+0x26>
			buff[i++] = c;
 bf2:	5530      	strb	r0, [r6, r4]
 bf4:	1c67      	adds	r7, r4, #1
#if _LINE_ECHO
			xputc(c);
 bf6:	f7ff fe35 	bl	864 <xputc>
			xputc(c);
#endif
			continue;
		}
		if (c >= ' ' && i < len - 1) {	/* Visible chars */
			buff[i++] = c;
 bfa:	1c3c      	adds	r4, r7, #0
 bfc:	e7ed      	b.n	bda <xgets+0x26>
#if _LINE_ECHO
			xputc(c);
#endif
		}
	}
	buff[i] = 0;	/* Terminate with a \0 */
 bfe:	2300      	movs	r3, #0
 c00:	5533      	strb	r3, [r6, r4]
#if _LINE_ECHO
#if !_LF_CRLF
		xputc('\r');
 c02:	f7ff fe2f 	bl	864 <xputc>
#endif
		xputc('\n');
 c06:	200a      	movs	r0, #10
 c08:	f7ff fe2c 	bl	864 <xputc>
#endif
	return 1;
 c0c:	2001      	movs	r0, #1
}
 c0e:	bcfe      	pop	{r1, r2, r3, r4, r5, r6, r7}
 c10:	bc02      	pop	{r1}
 c12:	4708      	bx	r1
 c14:	40000124 	.word	0x40000124

00000c18 <xfgets>:
int xfgets (	/* 0:End of stream, 1:A line arrived */
	unsigned char (*func)(void),	/* Pointer to the input stream function */
	char* buff,	/* Pointer to the buffer */
	int len		/* Buffer length */
)
{
 c18:	b538      	push	{r3, r4, r5, lr}
	unsigned char (*pf)(void);
	int n;


	pf = xfunc_in;			/* Save current input device */
 c1a:	4c05      	ldr	r4, [pc, #20]	; (c30 <xfgets+0x18>)
 c1c:	6825      	ldr	r5, [r4, #0]
	xfunc_in = func;		/* Switch input to specified device */
 c1e:	6020      	str	r0, [r4, #0]
	n = xgets(buff, len);	/* Get a line */
 c20:	1c08      	adds	r0, r1, #0
 c22:	1c11      	adds	r1, r2, #0
 c24:	f7ff ffc6 	bl	bb4 <xgets>
	xfunc_in = pf;			/* Restore input device */
 c28:	6025      	str	r5, [r4, #0]

	return n;
}
 c2a:	bc38      	pop	{r3, r4, r5}
 c2c:	bc02      	pop	{r1}
 c2e:	4708      	bx	r1
 c30:	40000124 	.word	0x40000124

00000c34 <xatoi>:
{
	unsigned long val;
	unsigned char c, r, s = 0;


	*res = 0;
 c34:	2300      	movs	r3, #0

int xatoi (			/* 0:Failed, 1:Successful */
	char **str,		/* Pointer to pointer to the string */
	long *res		/* Pointer to the valiable to store the value */
)
{
 c36:	b570      	push	{r4, r5, r6, lr}
	unsigned long val;
	unsigned char c, r, s = 0;


	*res = 0;
 c38:	600b      	str	r3, [r1, #0]

	while ((c = **str) == ' ') (*str)++;	/* Skip leading spaces */
 c3a:	6802      	ldr	r2, [r0, #0]
 c3c:	7813      	ldrb	r3, [r2, #0]
 c3e:	2b20      	cmp	r3, #32
 c40:	d102      	bne.n	c48 <xatoi+0x14>
 c42:	3201      	adds	r2, #1
 c44:	6002      	str	r2, [r0, #0]
 c46:	e7f8      	b.n	c3a <xatoi+0x6>
	char **str,		/* Pointer to pointer to the string */
	long *res		/* Pointer to the valiable to store the value */
)
{
	unsigned long val;
	unsigned char c, r, s = 0;
 c48:	2500      	movs	r5, #0

	*res = 0;

	while ((c = **str) == ' ') (*str)++;	/* Skip leading spaces */

	if (c == '-') {		/* negative? */
 c4a:	2b2d      	cmp	r3, #45	; 0x2d
 c4c:	d103      	bne.n	c56 <xatoi+0x22>
		s = 1;
		c = *(++(*str));
 c4e:	1c53      	adds	r3, r2, #1
 c50:	6003      	str	r3, [r0, #0]
 c52:	7853      	ldrb	r3, [r2, #1]
	*res = 0;

	while ((c = **str) == ' ') (*str)++;	/* Skip leading spaces */

	if (c == '-') {		/* negative? */
		s = 1;
 c54:	3501      	adds	r5, #1
		c = *(++(*str));
	}

	if (c == '0') {
 c56:	2b30      	cmp	r3, #48	; 0x30
 c58:	d11b      	bne.n	c92 <xatoi+0x5e>
		c = *(++(*str));
 c5a:	6802      	ldr	r2, [r0, #0]
 c5c:	1c53      	adds	r3, r2, #1
 c5e:	6003      	str	r3, [r0, #0]
 c60:	7853      	ldrb	r3, [r2, #1]
		switch (c) {
 c62:	2b62      	cmp	r3, #98	; 0x62
 c64:	d006      	beq.n	c74 <xatoi+0x40>
 c66:	2b78      	cmp	r3, #120	; 0x78
 c68:	d109      	bne.n	c7e <xatoi+0x4a>
		case 'x':		/* hexdecimal */
			r = 16; c = *(++(*str));
 c6a:	1c93      	adds	r3, r2, #2
 c6c:	6003      	str	r3, [r0, #0]
 c6e:	2610      	movs	r6, #16
 c70:	7893      	ldrb	r3, [r2, #2]
			break;
 c72:	e013      	b.n	c9c <xatoi+0x68>
		case 'b':		/* binary */
			r = 2; c = *(++(*str));
 c74:	1c93      	adds	r3, r2, #2
 c76:	6003      	str	r3, [r0, #0]
 c78:	2602      	movs	r6, #2
 c7a:	7893      	ldrb	r3, [r2, #2]
			break;
 c7c:	e00e      	b.n	c9c <xatoi+0x68>
		default:
			if (c <= ' ') return 1;	/* single zero */
 c7e:	2201      	movs	r2, #1
 c80:	2b20      	cmp	r3, #32
 c82:	d92c      	bls.n	cde <xatoi+0xaa>
			if (c < '0' || c > '9') return 0;	/* invalid char */
 c84:	1c1a      	adds	r2, r3, #0
 c86:	3a30      	subs	r2, #48	; 0x30
			r = 8;		/* octal */
 c88:	2608      	movs	r6, #8
		case 'b':		/* binary */
			r = 2; c = *(++(*str));
			break;
		default:
			if (c <= ' ') return 1;	/* single zero */
			if (c < '0' || c > '9') return 0;	/* invalid char */
 c8a:	2a09      	cmp	r2, #9
 c8c:	d906      	bls.n	c9c <xatoi+0x68>
 c8e:	2200      	movs	r2, #0
 c90:	e025      	b.n	cde <xatoi+0xaa>
			r = 8;		/* octal */
		}
	} else {
		if (c < '0' || c > '9') return 0;	/* EOL or invalid char */
 c92:	1c1a      	adds	r2, r3, #0
 c94:	3a30      	subs	r2, #48	; 0x30
 c96:	2a09      	cmp	r2, #9
 c98:	d8f9      	bhi.n	c8e <xatoi+0x5a>
		r = 10;			/* decimal */
 c9a:	260a      	movs	r6, #10
	}

	val = 0;
 c9c:	2400      	movs	r4, #0
	while (c > ' ') {
 c9e:	2b20      	cmp	r3, #32
 ca0:	d918      	bls.n	cd4 <xatoi+0xa0>
		if (c >= 'a') c -= 0x20;
 ca2:	2b60      	cmp	r3, #96	; 0x60
 ca4:	d902      	bls.n	cac <xatoi+0x78>
 ca6:	3b20      	subs	r3, #32
 ca8:	061b      	lsls	r3, r3, #24
 caa:	0e1b      	lsrs	r3, r3, #24
		c -= '0';
 cac:	1c1a      	adds	r2, r3, #0
 cae:	3a30      	subs	r2, #48	; 0x30
 cb0:	0612      	lsls	r2, r2, #24
 cb2:	0e12      	lsrs	r2, r2, #24
		if (c >= 17) {
 cb4:	2a10      	cmp	r2, #16
 cb6:	d904      	bls.n	cc2 <xatoi+0x8e>
			c -= 7;
 cb8:	3b37      	subs	r3, #55	; 0x37
 cba:	061a      	lsls	r2, r3, #24
 cbc:	0e12      	lsrs	r2, r2, #24
			if (c <= 9) return 0;	/* invalid char */
 cbe:	2a09      	cmp	r2, #9
 cc0:	d9e5      	bls.n	c8e <xatoi+0x5a>
		}
		if (c >= r) return 0;		/* invalid char for current radix */
 cc2:	42b2      	cmp	r2, r6
 cc4:	d2e3      	bcs.n	c8e <xatoi+0x5a>
		val = val * r + c;
 cc6:	4374      	muls	r4, r6
		c = *(++(*str));
 cc8:	6803      	ldr	r3, [r0, #0]
		if (c >= 17) {
			c -= 7;
			if (c <= 9) return 0;	/* invalid char */
		}
		if (c >= r) return 0;		/* invalid char for current radix */
		val = val * r + c;
 cca:	1914      	adds	r4, r2, r4
		c = *(++(*str));
 ccc:	1c5a      	adds	r2, r3, #1
 cce:	6002      	str	r2, [r0, #0]
 cd0:	785b      	ldrb	r3, [r3, #1]
 cd2:	e7e4      	b.n	c9e <xatoi+0x6a>
	}
	if (s) val = 0 - val;			/* apply sign if needed */
 cd4:	2d00      	cmp	r5, #0
 cd6:	d000      	beq.n	cda <xatoi+0xa6>
 cd8:	4264      	negs	r4, r4

	*res = val;
	return 1;
 cda:	2201      	movs	r2, #1
		val = val * r + c;
		c = *(++(*str));
	}
	if (s) val = 0 - val;			/* apply sign if needed */

	*res = val;
 cdc:	600c      	str	r4, [r1, #0]
	return 1;
}
 cde:	1c10      	adds	r0, r2, #0
 ce0:	bc70      	pop	{r4, r5, r6}
 ce2:	bc02      	pop	{r1}
 ce4:	4708      	bx	r1
 ce6:	4718      	bx	r3

00000ce8 <processCommand>:
unsigned short TxMessage_CRC = 0xD199;

unsigned char RxCount,Index;

void processCommand(char *cmd)
{
 ce8:	b508      	push	{r3, lr}
	if(strncmp(cmd, "set", 8) == 0)
	{
	}

	/* Manual  */
	if(strncmp(cmd, "help", 4) == 0)
 cea:	4906      	ldr	r1, [pc, #24]	; (d04 <processCommand+0x1c>)
 cec:	2204      	movs	r2, #4
 cee:	f000 f837 	bl	d60 <strncmp>
 cf2:	2800      	cmp	r0, #0
 cf4:	d102      	bne.n	cfc <processCommand+0x14>
		xputs("Plazma probe controller:\n \tUsage:\n \t\tstart - start measurements\n  \t\tstop - finish measurements\n  \t\tset <voltage> - probe voltage setup\n");
 cf6:	4804      	ldr	r0, [pc, #16]	; (d08 <processCommand+0x20>)
 cf8:	f7ff fdd2 	bl	8a0 <xputs>

}
 cfc:	bc08      	pop	{r3}
 cfe:	bc01      	pop	{r0}
 d00:	4700      	bx	r0
 d02:	46c0      	nop			; (mov r8, r8)
 d04:	00000f63 	.word	0x00000f63
 d08:	00000f68 	.word	0x00000f68

00000d0c <UART0_send>:
void UART0_send(unsigned char *BufferPtr, unsigned short Length )
{
 d0c:	b510      	push	{r4, lr}
  U0IER &= ~(1 << RBR_Enable );     // Disable RBR
 d0e:	2401      	movs	r4, #1
 d10:	4b0e      	ldr	r3, [pc, #56]	; (d4c <UART0_send+0x40>)
 d12:	681a      	ldr	r2, [r3, #0]
 d14:	43a2      	bics	r2, r4
 d16:	1c1c      	adds	r4, r3, #0
 d18:	601a      	str	r2, [r3, #0]
  
  while ( Length != 0 )
 d1a:	2900      	cmp	r1, #0
 d1c:	d00c      	beq.n	d38 <UART0_send+0x2c>
  {
    // THRE status, contain valid data 
    while (U0LSR & (1 << 5) ==0 );//ждём пока освободиться регистр THR
    UART0TxEmpty = 0;
 d1e:	2200      	movs	r2, #0
  U0IER &= ~(1 << RBR_Enable );     // Disable RBR
  
  while ( Length != 0 )
  {
    // THRE status, contain valid data 
    while (U0LSR & (1 << 5) ==0 );//ждём пока освободиться регистр THR
 d20:	4b0b      	ldr	r3, [pc, #44]	; (d50 <UART0_send+0x44>)
 d22:	681b      	ldr	r3, [r3, #0]
    UART0TxEmpty = 0;
 d24:	4b0b      	ldr	r3, [pc, #44]	; (d54 <UART0_send+0x48>)
 d26:	701a      	strb	r2, [r3, #0]
    U0THR = *BufferPtr;// в сдвиговый регистр положить данные
     
    BufferPtr++;
    Length--;
 d28:	3901      	subs	r1, #1
  while ( Length != 0 )
  {
    // THRE status, contain valid data 
    while (U0LSR & (1 << 5) ==0 );//ждём пока освободиться регистр THR
    UART0TxEmpty = 0;
    U0THR = *BufferPtr;// в сдвиговый регистр положить данные
 d2a:	7802      	ldrb	r2, [r0, #0]
 d2c:	4b0a      	ldr	r3, [pc, #40]	; (d58 <UART0_send+0x4c>)
     
    BufferPtr++;
    Length--;
 d2e:	0409      	lsls	r1, r1, #16
  while ( Length != 0 )
  {
    // THRE status, contain valid data 
    while (U0LSR & (1 << 5) ==0 );//ждём пока освободиться регистр THR
    UART0TxEmpty = 0;
    U0THR = *BufferPtr;// в сдвиговый регистр положить данные
 d30:	601a      	str	r2, [r3, #0]
     
    BufferPtr++;
 d32:	3001      	adds	r0, #1
    Length--;
 d34:	0c09      	lsrs	r1, r1, #16
 d36:	e7f0      	b.n	d1a <UART0_send+0xe>
  }
  
  UART0Count = 0;
 d38:	4a08      	ldr	r2, [pc, #32]	; (d5c <UART0_send+0x50>)
 d3a:	7011      	strb	r1, [r2, #0]
  U0IER |= (1 << RBR_Enable );      // Re-enable RBR 
 d3c:	2201      	movs	r2, #1
 d3e:	6823      	ldr	r3, [r4, #0]
 d40:	4313      	orrs	r3, r2
 d42:	6023      	str	r3, [r4, #0]
  
  return;
}
 d44:	bc10      	pop	{r4}
 d46:	bc01      	pop	{r0}
 d48:	4700      	bx	r0
 d4a:	46c0      	nop			; (mov r8, r8)
 d4c:	e000c004 	.word	0xe000c004
 d50:	e000c014 	.word	0xe000c014
 d54:	40000000 	.word	0x40000000
 d58:	e000c000 	.word	0xe000c000
 d5c:	40000120 	.word	0x40000120

00000d60 <strncmp>:
 d60:	1c03      	adds	r3, r0, #0
 d62:	b530      	push	{r4, r5, lr}
 d64:	2000      	movs	r0, #0
 d66:	2a00      	cmp	r2, #0
 d68:	d03a      	beq.n	de0 <strncmp+0x80>
 d6a:	1c1c      	adds	r4, r3, #0
 d6c:	430c      	orrs	r4, r1
 d6e:	07a4      	lsls	r4, r4, #30
 d70:	d120      	bne.n	db4 <strncmp+0x54>
 d72:	2a03      	cmp	r2, #3
 d74:	d91e      	bls.n	db4 <strncmp+0x54>
 d76:	681c      	ldr	r4, [r3, #0]
 d78:	680d      	ldr	r5, [r1, #0]
 d7a:	42ac      	cmp	r4, r5
 d7c:	d11a      	bne.n	db4 <strncmp+0x54>
 d7e:	3a04      	subs	r2, #4
 d80:	2a00      	cmp	r2, #0
 d82:	d02d      	beq.n	de0 <strncmp+0x80>
 d84:	4d1a      	ldr	r5, [pc, #104]	; (df0 <strncmp+0x90>)
 d86:	1965      	adds	r5, r4, r5
 d88:	43a5      	bics	r5, r4
 d8a:	1c2c      	adds	r4, r5, #0
 d8c:	4d19      	ldr	r5, [pc, #100]	; (df4 <strncmp+0x94>)
 d8e:	422c      	tst	r4, r5
 d90:	d00c      	beq.n	dac <strncmp+0x4c>
 d92:	e025      	b.n	de0 <strncmp+0x80>
 d94:	6818      	ldr	r0, [r3, #0]
 d96:	680c      	ldr	r4, [r1, #0]
 d98:	42a0      	cmp	r0, r4
 d9a:	d10b      	bne.n	db4 <strncmp+0x54>
 d9c:	3a04      	subs	r2, #4
 d9e:	2a00      	cmp	r2, #0
 da0:	d021      	beq.n	de6 <strncmp+0x86>
 da2:	4c13      	ldr	r4, [pc, #76]	; (df0 <strncmp+0x90>)
 da4:	1904      	adds	r4, r0, r4
 da6:	4384      	bics	r4, r0
 da8:	422c      	tst	r4, r5
 daa:	d11c      	bne.n	de6 <strncmp+0x86>
 dac:	3304      	adds	r3, #4
 dae:	3104      	adds	r1, #4
 db0:	2a03      	cmp	r2, #3
 db2:	d8ef      	bhi.n	d94 <strncmp+0x34>
 db4:	781d      	ldrb	r5, [r3, #0]
 db6:	7808      	ldrb	r0, [r1, #0]
 db8:	3a01      	subs	r2, #1
 dba:	4285      	cmp	r5, r0
 dbc:	d115      	bne.n	dea <strncmp+0x8a>
 dbe:	2a00      	cmp	r2, #0
 dc0:	d011      	beq.n	de6 <strncmp+0x86>
 dc2:	2d00      	cmp	r5, #0
 dc4:	d104      	bne.n	dd0 <strncmp+0x70>
 dc6:	e00e      	b.n	de6 <strncmp+0x86>
 dc8:	2c00      	cmp	r4, #0
 dca:	d00c      	beq.n	de6 <strncmp+0x86>
 dcc:	2a00      	cmp	r2, #0
 dce:	d00a      	beq.n	de6 <strncmp+0x86>
 dd0:	3301      	adds	r3, #1
 dd2:	3101      	adds	r1, #1
 dd4:	781c      	ldrb	r4, [r3, #0]
 dd6:	7808      	ldrb	r0, [r1, #0]
 dd8:	3a01      	subs	r2, #1
 dda:	4284      	cmp	r4, r0
 ddc:	d0f4      	beq.n	dc8 <strncmp+0x68>
 dde:	1a20      	subs	r0, r4, r0
 de0:	bc30      	pop	{r4, r5}
 de2:	bc02      	pop	{r1}
 de4:	4708      	bx	r1
 de6:	2000      	movs	r0, #0
 de8:	e7fa      	b.n	de0 <strncmp+0x80>
 dea:	1c2c      	adds	r4, r5, #0
 dec:	1a20      	subs	r0, r4, r0
 dee:	e7f7      	b.n	de0 <strncmp+0x80>
 df0:	fefefeff 	.word	0xfefefeff
 df4:	80808080 	.word	0x80808080

00000df8 <__aeabi_uidiv>:
 df8:	e2512001 	subs	r2, r1, #1
 dfc:	012fff1e 	bxeq	lr
 e00:	3a000036 	bcc	ee0 <__aeabi_uidiv+0xe8>
 e04:	e1500001 	cmp	r0, r1
 e08:	9a000022 	bls	e98 <__aeabi_uidiv+0xa0>
 e0c:	e1110002 	tst	r1, r2
 e10:	0a000023 	beq	ea4 <__aeabi_uidiv+0xac>
 e14:	e311020e 	tst	r1, #-536870912	; 0xe0000000
 e18:	01a01181 	lsleq	r1, r1, #3
 e1c:	03a03008 	moveq	r3, #8
 e20:	13a03001 	movne	r3, #1
 e24:	e3510201 	cmp	r1, #268435456	; 0x10000000
 e28:	31510000 	cmpcc	r1, r0
 e2c:	31a01201 	lslcc	r1, r1, #4
 e30:	31a03203 	lslcc	r3, r3, #4
 e34:	3afffffa 	bcc	e24 <__aeabi_uidiv+0x2c>
 e38:	e3510102 	cmp	r1, #-2147483648	; 0x80000000
 e3c:	31510000 	cmpcc	r1, r0
 e40:	31a01081 	lslcc	r1, r1, #1
 e44:	31a03083 	lslcc	r3, r3, #1
 e48:	3afffffa 	bcc	e38 <__aeabi_uidiv+0x40>
 e4c:	e3a02000 	mov	r2, #0
 e50:	e1500001 	cmp	r0, r1
 e54:	20400001 	subcs	r0, r0, r1
 e58:	21822003 	orrcs	r2, r2, r3
 e5c:	e15000a1 	cmp	r0, r1, lsr #1
 e60:	204000a1 	subcs	r0, r0, r1, lsr #1
 e64:	218220a3 	orrcs	r2, r2, r3, lsr #1
 e68:	e1500121 	cmp	r0, r1, lsr #2
 e6c:	20400121 	subcs	r0, r0, r1, lsr #2
 e70:	21822123 	orrcs	r2, r2, r3, lsr #2
 e74:	e15001a1 	cmp	r0, r1, lsr #3
 e78:	204001a1 	subcs	r0, r0, r1, lsr #3
 e7c:	218221a3 	orrcs	r2, r2, r3, lsr #3
 e80:	e3500000 	cmp	r0, #0
 e84:	11b03223 	lsrsne	r3, r3, #4
 e88:	11a01221 	lsrne	r1, r1, #4
 e8c:	1affffef 	bne	e50 <__aeabi_uidiv+0x58>
 e90:	e1a00002 	mov	r0, r2
 e94:	e12fff1e 	bx	lr
 e98:	03a00001 	moveq	r0, #1
 e9c:	13a00000 	movne	r0, #0
 ea0:	e12fff1e 	bx	lr
 ea4:	e3510801 	cmp	r1, #65536	; 0x10000
 ea8:	21a01821 	lsrcs	r1, r1, #16
 eac:	23a02010 	movcs	r2, #16
 eb0:	33a02000 	movcc	r2, #0
 eb4:	e3510c01 	cmp	r1, #256	; 0x100
 eb8:	21a01421 	lsrcs	r1, r1, #8
 ebc:	22822008 	addcs	r2, r2, #8
 ec0:	e3510010 	cmp	r1, #16
 ec4:	21a01221 	lsrcs	r1, r1, #4
 ec8:	22822004 	addcs	r2, r2, #4
 ecc:	e3510004 	cmp	r1, #4
 ed0:	82822003 	addhi	r2, r2, #3
 ed4:	908220a1 	addls	r2, r2, r1, lsr #1
 ed8:	e1a00230 	lsr	r0, r0, r2
 edc:	e12fff1e 	bx	lr
 ee0:	e12fff1f 	bx	pc
 ee4:	e1a00000 	nop			; (mov r0, r0)
 ee8:	e3500000 	cmp	r0, #0
 eec:	13e00000 	mvnne	r0, #0
 ef0:	ea00000c 	b	f28 <____aeabi_idiv0_from_arm>

00000ef4 <__aeabi_uidivmod>:
 ef4:	e3510000 	cmp	r1, #0
 ef8:	0afffff8 	beq	ee0 <__aeabi_uidiv+0xe8>
 efc:	e92d4003 	push	{r0, r1, lr}
 f00:	ebffffbc 	bl	df8 <__aeabi_uidiv>
 f04:	e8bd4006 	pop	{r1, r2, lr}
 f08:	e0030092 	mul	r3, r2, r0
 f0c:	e0411003 	sub	r1, r1, r3
 f10:	e12fff1e 	bx	lr

00000f14 <__aeabi_idiv0>:
 f14:	4770      	bx	lr
 f16:	46c0      	nop			; (mov r8, r8)

00000f18 <____aeabi_uidivmod_from_thumb>:
 f18:	4778      	bx	pc
 f1a:	46c0      	nop			; (mov r8, r8)
 f1c:	eafffff4 	b	ef4 <__aeabi_uidivmod>

00000f20 <____aeabi_uidiv_from_thumb>:
 f20:	4778      	bx	pc
 f22:	46c0      	nop			; (mov r8, r8)
 f24:	eaffffb3 	b	df8 <__aeabi_uidiv>

00000f28 <____aeabi_idiv0_from_arm>:
 f28:	e59fc000 	ldr	ip, [pc]	; f30 <____aeabi_idiv0_from_arm+0x8>
 f2c:	e12fff1c 	bx	ip
 f30:	00000f15 	.word	0x00000f15
 f34:	00000000 	.word	0x00000000
 f38:	2043504c 	.word	0x2043504c
 f3c:	74696e69 	.word	0x74696e69
 f40:	696c6169 	.word	0x696c6169
 f44:	0a64657a 	.word	0x0a64657a
 f48:	00          	.byte	0x00
 f49:	25          	.byte	0x25
 f4a:	3830      	.short	0x3830
 f4c:	003a586c 	.word	0x003a586c
 f50:	32302520 	.word	0x32302520
 f54:	25200058 	.word	0x25200058
 f58:	00583430 	.word	0x00583430
 f5c:	38302520 	.word	0x38302520
 f60:	584c      	.short	0x584c
 f62:	00          	.byte	0x00
 f63:	68          	.byte	0x68
 f64:	00706c65 	.word	0x00706c65
 f68:	7a616c50 	.word	0x7a616c50
 f6c:	7020616d 	.word	0x7020616d
 f70:	65626f72 	.word	0x65626f72
 f74:	6e6f6320 	.word	0x6e6f6320
 f78:	6c6f7274 	.word	0x6c6f7274
 f7c:	3a72656c 	.word	0x3a72656c
 f80:	5509200a 	.word	0x5509200a
 f84:	65676173 	.word	0x65676173
 f88:	09200a3a 	.word	0x09200a3a
 f8c:	61747309 	.word	0x61747309
 f90:	2d207472 	.word	0x2d207472
 f94:	61747320 	.word	0x61747320
 f98:	6d207472 	.word	0x6d207472
 f9c:	75736165 	.word	0x75736165
 fa0:	656d6572 	.word	0x656d6572
 fa4:	0a73746e 	.word	0x0a73746e
 fa8:	09092020 	.word	0x09092020
 fac:	706f7473 	.word	0x706f7473
 fb0:	66202d20 	.word	0x66202d20
 fb4:	73696e69 	.word	0x73696e69
 fb8:	656d2068 	.word	0x656d2068
 fbc:	72757361 	.word	0x72757361
 fc0:	6e656d65 	.word	0x6e656d65
 fc4:	200a7374 	.word	0x200a7374
 fc8:	73090920 	.word	0x73090920
 fcc:	3c207465 	.word	0x3c207465
 fd0:	746c6f76 	.word	0x746c6f76
 fd4:	3e656761 	.word	0x3e656761
 fd8:	70202d20 	.word	0x70202d20
 fdc:	65626f72 	.word	0x65626f72
 fe0:	6c6f7620 	.word	0x6c6f7620
 fe4:	65676174 	.word	0x65676174
 fe8:	74657320 	.word	0x74657320
 fec:	000a7075 	.word	0x000a7075
