
obj/zond_cvc.elf:     file format elf32-littlearm

Sections:
Idx Name          Size      VMA       LMA       File off  Algn
  0 .text         00002b14  00000000  00000000  00010000  2**3
                  CONTENTS, ALLOC, LOAD, READONLY, CODE
  1 .data         00000434  40000000  00002b14  00020000  2**3
                  CONTENTS, ALLOC, LOAD, DATA
  2 .bss          00000148  40000434  00002f48  00020434  2**1
                  ALLOC
  3 .stack        00000a14  4000057c  00003090  00020434  2**2
                  ALLOC
  4 .usbram       00000000  7fd00000  7fd00000  00020434  2**0
                  CONTENTS
  5 .etherram     00000000  7fe00000  7fe00000  00020434  2**0
                  CONTENTS
  6 .batteryram   00000000  e0084000  e0084000  00020434  2**0
                  CONTENTS
  7 .comment      00000070  00000000  00000000  00020434  2**0
                  CONTENTS, READONLY
  8 .ARM.attributes 0000002e  00000000  00000000  000204a4  2**0
                  CONTENTS, READONLY
  9 .debug_aranges 000003a0  00000000  00000000  000204d8  2**3
                  CONTENTS, READONLY, DEBUGGING
 10 .debug_info   00004505  00000000  00000000  00020878  2**0
                  CONTENTS, READONLY, DEBUGGING
 11 .debug_abbrev 000013f2  00000000  00000000  00024d7d  2**0
                  CONTENTS, READONLY, DEBUGGING
 12 .debug_line   00001ba9  00000000  00000000  0002616f  2**0
                  CONTENTS, READONLY, DEBUGGING
 13 .debug_frame  00000634  00000000  00000000  00027d18  2**2
                  CONTENTS, READONLY, DEBUGGING
 14 .debug_str    00000d57  00000000  00000000  0002834c  2**0
                  CONTENTS, READONLY, DEBUGGING
 15 .debug_loc    00001b2b  00000000  00000000  000290a3  2**0
                  CONTENTS, READONLY, DEBUGGING
 16 .debug_ranges 00000100  00000000  00000000  0002abd0  2**3
                  CONTENTS, READONLY, DEBUGGING

Disassembly of section .text:

00000000 <reset_handler-0x300>:
@-----------------------------------------------------------@

.section .VECTOR, "ax"
.arm

	LDR	PC, =reset_handler	@ Reset entry
       0:	e59ff018 	ldr	pc, [pc, #24]	; 20 <B_Thumb>
	LDR	PC, =trap		@ Undef entry
       4:	e59ff018 	ldr	pc, [pc, #24]	; 24 <VIC_SWPriorityMask>
	LDR	PC, =swi_handler	@ SWI entry
       8:	e59ff018 	ldr	pc, [pc, #24]	; 28 <VIC_SWPriorityMask+0x4>
	LDR	PC, =trap		@ PAbt entry
       c:	e59ff010 	ldr	pc, [pc, #16]	; 24 <VIC_SWPriorityMask>
	LDR	PC, =trap		@ DAbt entry
      10:	e59ff00c 	ldr	pc, [pc, #12]	; 24 <VIC_SWPriorityMask>
      14:	00000000 	.word	0x00000000
	.word	0			@ Check sum (set by flash programmer)
	LDR	PC, =irq_handler	@ IRQ entry
      18:	e59ff00c 	ldr	pc, [pc, #12]	; 2c <VIC_SWPriorityMask+0x8>
	LDR     PC, =fiq_handler	@ FIQ entry
      1c:	e59ff00c 	ldr	pc, [pc, #12]	; 30 <VIC_SWPriorityMask+0xc>
@-----------------------------------------------------------@

.section .VECTOR, "ax"
.arm

	LDR	PC, =reset_handler	@ Reset entry
      20:	00000300 	.word	0x00000300
	LDR	PC, =trap		@ Undef entry
      24:	0000038c 	.word	0x0000038c
	LDR	PC, =swi_handler	@ SWI entry
      28:	000003fc 	.word	0x000003fc
	LDR	PC, =trap		@ PAbt entry
	LDR	PC, =trap		@ DAbt entry
	.word	0			@ Check sum (set by flash programmer)
	LDR	PC, =irq_handler	@ IRQ entry
      2c:	000003ac 	.word	0x000003ac
	LDR     PC, =fiq_handler	@ FIQ entry
      30:	000003f4 	.word	0x000003f4
	...

00000300 <reset_handler>:
@	LDR	R0, =TargetResetInit
@	MOV	LR, PC
@	BX	R0

@ Setup Stack for each mode
	LDR	R0, =stack_end
     300:	e59f0088 	ldr	r0, [pc, #136]	; 390 <trap+0x4>

@ Enter Undefined Instruction Mode and set its Stack Pointer
	MSR	CPSR_c, #M_UND | B_Irq | B_Fiq
     304:	e321f0db 	msr	CPSR_c, #219	; 0xdb
	MOV	SP, R0
     308:	e1a0d000 	mov	sp, r0
	SUB	R0, R0, #UND_Stack_Size
     30c:	e2400000 	sub	r0, r0, #0

@ Enter Abort Mode and set its Stack Pointer
	MSR	CPSR_c, #M_ABT | B_Irq | B_Fiq
     310:	e321f0d7 	msr	CPSR_c, #215	; 0xd7
	MOV	SP, R0
     314:	e1a0d000 	mov	sp, r0
	SUB	R0, R0, #ABT_Stack_Size
     318:	e2400000 	sub	r0, r0, #0

@ Enter FIQ Mode and set its Stack Pointer
	MSR	CPSR_c, #M_FIQ | B_Irq | B_Fiq
     31c:	e321f0d1 	msr	CPSR_c, #209	; 0xd1
	MOV	SP, R0
     320:	e1a0d000 	mov	sp, r0
	SUB	R0, R0, #FIQ_Stack_Size
     324:	e2400010 	sub	r0, r0, #16

@ Enter IRQ Mode and set its Stack Pointer
	MSR	CPSR_c, #M_IRQ | B_Irq | B_Fiq
     328:	e321f0d2 	msr	CPSR_c, #210	; 0xd2
	MOV	SP, R0
     32c:	e1a0d000 	mov	sp, r0
	SUB	R0, R0, #IRQ_Stack_Size
     330:	e2400c01 	sub	r0, r0, #256	; 0x100

@ Enter Supervisor Mode and set its Stack Pointer
	MSR	CPSR_c, #M_SVC | B_Irq | B_Fiq
     334:	e321f0d3 	msr	CPSR_c, #211	; 0xd3
	MOV	SP, R0
     338:	e1a0d000 	mov	sp, r0
	SUB	R0, R0, #SVC_Stack_Size
     33c:	e2400c01 	sub	r0, r0, #256	; 0x100

@ Enter User Mode and set its Stack Pointer
	MSR	CPSR_c, #M_USR | B_Irq | B_Fiq
     340:	e321f0d0 	msr	CPSR_c, #208	; 0xd0
	MOV	SP, R0
     344:	e1a0d000 	mov	sp, r0
	SUB	SL, SP, #USR_Stack_Size
     348:	e24dab02 	sub	sl, sp, #2048	; 0x800

@ Initialize .data section (Copy ROM data)
	LDR	R1, =_sidata
     34c:	e59f1040 	ldr	r1, [pc, #64]	; 394 <trap+0x8>
	LDR	R2, =_sdata
     350:	e59f2040 	ldr	r2, [pc, #64]	; 398 <trap+0xc>
	LDR	R3, =_edata
     354:	e59f3040 	ldr	r3, [pc, #64]	; 39c <trap+0x10>
1:	CMP	R2, R3
     358:	e1520003 	cmp	r2, r3
	LDRLO	R0, [R1], #4
     35c:	34910004 	ldrcc	r0, [r1], #4
	STRLO	R0, [R2], #4
     360:	34820004 	strcc	r0, [r2], #4
	BLO	1b
     364:	3afffffb 	bcc	358 <reset_handler+0x58>

@ Initialize .bss section (Fill with 0)
	MOV	R0, #0
     368:	e3a00000 	mov	r0, #0
	LDR	R1, =_sbss
     36c:	e59f102c 	ldr	r1, [pc, #44]	; 3a0 <trap+0x14>
	LDR	R2, =_ebss
     370:	e59f202c 	ldr	r2, [pc, #44]	; 3a4 <trap+0x18>
3:	CMP	R1, R2
     374:	e1510002 	cmp	r1, r2
	STRLO	R0, [R1], #4
     378:	34810004 	strcc	r0, [r1], #4
	BLO	3b
     37c:	3afffffc 	bcc	374 <reset_handler+0x74>

@ Start main()
.extern main
	LDR	R0, =main
     380:	e59f0020 	ldr	r0, [pc, #32]	; 3a8 <trap+0x1c>
	MOV	LR, PC
     384:	e1a0e00f 	mov	lr, pc
	BX	R0
     388:	e12fff10 	bx	r0

0000038c <trap>:

@ Trap (infinite loop)
trap:
	B	trap
     38c:	eafffffe 	b	38c <trap>
@	LDR	R0, =TargetResetInit
@	MOV	LR, PC
@	BX	R0

@ Setup Stack for each mode
	LDR	R0, =stack_end
     390:	40000f90 	.word	0x40000f90
	MSR	CPSR_c, #M_USR | B_Irq | B_Fiq
	MOV	SP, R0
	SUB	SL, SP, #USR_Stack_Size

@ Initialize .data section (Copy ROM data)
	LDR	R1, =_sidata
     394:	00002b14 	.word	0x00002b14
	LDR	R2, =_sdata
     398:	40000000 	.word	0x40000000
	LDR	R3, =_edata
     39c:	40000434 	.word	0x40000434
	STRLO	R0, [R2], #4
	BLO	1b

@ Initialize .bss section (Fill with 0)
	MOV	R0, #0
	LDR	R1, =_sbss
     3a0:	40000434 	.word	0x40000434
	LDR	R2, =_ebss
     3a4:	4000057c 	.word	0x4000057c
	STRLO	R0, [R1], #4
	BLO	3b

@ Start main()
.extern main
	LDR	R0, =main
     3a8:	000007cd 	.word	0x000007cd

000003ac <irq_handler>:
.equ VIC_VectAddr0,	0x100
.equ VIC_VectPriority0,	0x200
.equ VIC_VectAddr,	0xF00

irq_handler:
	SUB	LR, LR, #4		@ Adjust LR_irq and push it
     3ac:	e24ee004 	sub	lr, lr, #4
	STMFD	SP!, {LR}
     3b0:	e92d4000 	stmfd	sp!, {lr}

	MRS	LR, SPSR		@ Save SPSR need to be saved for nested interrupt
     3b4:	e14fe000 	mrs	lr, SPSR
	STMFD	SP!, {R0-R3,IP,LR}	@ Push scratch/used registers and SPSR
     3b8:	e92d500f 	push	{r0, r1, r2, r3, ip, lr}
	LDR	R0, =LPC_BASE_VIC	@ Get the ISR address pointed by VIC_VectAddr
     3bc:	e59f002c 	ldr	r0, [pc, #44]	; 3f0 <irq_handler+0x44>
	LDR	R0, [R0, #VIC_VectAddr]
     3c0:	e5900f00 	ldr	r0, [r0, #3840]	; 0xf00
	MSR	CPSR_c, #M_SVC		@ Enter SVC mode and enable Irq and Fiq
     3c4:	e321f013 	msr	CPSR_c, #19

	STMFD	SP!, {LR}		@ Call the ISR
     3c8:	e92d4000 	stmfd	sp!, {lr}
	MOV	LR, PC
     3cc:	e1a0e00f 	mov	lr, pc
	BX	R0
     3d0:	e12fff10 	bx	r0
	LDMIA	SP!, {LR}
     3d4:	e8bd4000 	ldmfd	sp!, {lr}

	MSR	CPSR_c, #M_IRQ | B_Irq	@ Enter IRQ mode and disable Irq
     3d8:	e321f092 	msr	CPSR_c, #146	; 0x92
	LDMIA	SP!, {R0-R3,IP,LR}	@ Restore scratch/used registers and SPSR
     3dc:	e8bd500f 	pop	{r0, r1, r2, r3, ip, lr}
	MSR	SPSR_cxsf, LR		@ Restore SPSR_irq
     3e0:	e16ff00e 	msr	SPSR_fsxc, lr

	LDR	LR, =LPC_BASE_VIC	@ Issue EOI command to the VIC
     3e4:	e59fe004 	ldr	lr, [pc, #4]	; 3f0 <irq_handler+0x44>
	STR	LR, [LR, #VIC_VectAddr]
     3e8:	e58eef00 	str	lr, [lr, #3840]	; 0xf00

	LDMIA	SP!, {PC}^		@ Reruen from the IRQ handler
     3ec:	e8fd8000 	ldm	sp!, {pc}^
	SUB	LR, LR, #4		@ Adjust LR_irq and push it
	STMFD	SP!, {LR}

	MRS	LR, SPSR		@ Save SPSR need to be saved for nested interrupt
	STMFD	SP!, {R0-R3,IP,LR}	@ Push scratch/used registers and SPSR
	LDR	R0, =LPC_BASE_VIC	@ Get the ISR address pointed by VIC_VectAddr
     3f0:	fffff000 	.word	0xfffff000

000003f4 <fiq_handler>:
@ FIQ Handler
@ FIQ routine is typically written in assembler
@-----------------------------------------------------------@

fiq_handler:
	SUB	LR, LR, #4		@ Adjust LR_fiq
     3f4:	e24ee004 	sub	lr, lr, #4

	@ Put the FIQ service here

	MOVS	PC, LR			@ Return from FIQ
     3f8:	e1b0f00e 	movs	pc, lr

000003fc <swi_handler>:
@-----------------------------------------------------------@
@ SWI Service (declared in interrupt.h)
@-----------------------------------------------------------@

swi_handler:
	MRS	IP, SPSR
     3fc:	e14fc000 	mrs	ip, SPSR
	TST	IP, #B_Thumb		@ Check caller's state, ARM or Thumb
     400:	e31c0020 	tst	ip, #32
	LDRNEH	IP, [LR, #-2]		@ Get swi instruction code (on Thumb state)
     404:	115ec0b2 	ldrhne	ip, [lr, #-2]
	LDREQ	IP, [LR, #-4]		@ Get swi instruction code (on ARM state)
     408:	051ec004 	ldreq	ip, [lr, #-4]
	AND	IP, #0xFF		@ Get swi comment field (lower 8 bit)
     40c:	e20cc0ff 	and	ip, ip, #255	; 0xff
	CMP	IP, #7			@ Check range
     410:	e35c0007 	cmp	ip, #7
	LDRLO	PC, [PC, IP, LSL #2]	@ Jump to each service function when code is valid
     414:	379ff10c 	ldrcc	pc, [pc, ip, lsl #2]
	MOVS	PC, LR			@ Otherwise return
     418:	e1b0f00e 	movs	pc, lr
     41c:	00000438 	.word	0x00000438
     420:	00000448 	.word	0x00000448
     424:	00000458 	.word	0x00000458
     428:	0000047c 	.word	0x0000047c
     42c:	000004b4 	.word	0x000004b4
     430:	000004d4 	.word	0x000004d4
     434:	000004e4 	.word	0x000004e4

00000438 <irq_disable>:
	.word	sel_fiq		@ 4 Select FIQ interrupt
	.word	load_fiq	@ 5 Load FIQ shadow regs from memory
	.word	store_fiq	@ 6 Store FIQ shadow regs to memory

irq_disable:
	MRS	R0, SPSR
     438:	e14f0000 	mrs	r0, SPSR
	ORR	R0, R0, #B_Irq | B_Fiq
     43c:	e38000c0 	orr	r0, r0, #192	; 0xc0
	MSR	SPSR_c, R0
     440:	e161f000 	msr	SPSR_c, r0
	MOVS	PC, LR
     444:	e1b0f00e 	movs	pc, lr

00000448 <irq_enable>:

irq_enable:
	MRS	R0, SPSR
     448:	e14f0000 	mrs	r0, SPSR
	BIC	R0, R0, #B_Irq | B_Fiq
     44c:	e3c000c0 	bic	r0, r0, #192	; 0xc0
	MSR	SPSR_c, R0
     450:	e161f000 	msr	SPSR_c, r0
	MOVS	PC, LR
     454:	e1b0f00e 	movs	pc, lr

00000458 <clear_vect>:

clear_vect:
	LDR	IP, =LPC_BASE_VIC
     458:	e59fc094 	ldr	ip, [pc, #148]	; 4f4 <store_fiq+0x10>
	MVN	R0, #0				@ Disable all interrupts
     45c:	e3e00000 	mvn	r0, #0
	STR	R0, [IP, #VIC_IntEnClear]
     460:	e58c0014 	str	r0, [ip, #20]
	MOV	R0, R0, LSR #16			@ Unmask all interrupt levels
     464:	e1a00820 	lsr	r0, r0, #16
	STR	R0, [IP, #VIC_SWPriorityMask]
     468:	e58c0024 	str	r0, [ip, #36]	; 0x24
	MOV	R0, #1				@ Enable protection
     46c:	e3a00001 	mov	r0, #1
	STR	R0, [IP, #VIC_Protection]
     470:	e58c0020 	str	r0, [ip, #32]
	STR	R0, [IP, #VIC_VectAddr]		@ Issule EOI command
     474:	e58c0f00 	str	r0, [ip, #3840]	; 0xf00
	MOVS	PC, LR
     478:	e1b0f00e 	movs	pc, lr

0000047c <reg_irq>:

reg_irq:
	CMP	R0, #32				@ Range check
     47c:	e3500020 	cmp	r0, #32
	MOVCSS	PC, LR
     480:	21b0f00e 	movscs	pc, lr
	LDR	IP, =(LPC_BASE_VIC+VIC_VectAddr0)
     484:	e59fc06c 	ldr	ip, [pc, #108]	; 4f8 <store_fiq+0x14>
	STR	R1, [IP, R0, LSL #2]		@ Set VICVectVectAddr<n>
     488:	e78c1100 	str	r1, [ip, r0, lsl #2]
	LDR	IP, =(LPC_BASE_VIC+VIC_VectPriority0)
     48c:	e59fc068 	ldr	ip, [pc, #104]	; 4fc <store_fiq+0x18>
	STR	R2, [IP, R0, LSL #2]		@ Set VICVectPriority<n>
     490:	e78c2100 	str	r2, [ip, r0, lsl #2]
	MOV	R1, #1
     494:	e3a01001 	mov	r1, #1
	MOV	R1, R1, LSL R0
     498:	e1a01011 	lsl	r1, r1, r0
	LDR	IP, =LPC_BASE_VIC
     49c:	e59fc050 	ldr	ip, [pc, #80]	; 4f4 <store_fiq+0x10>
	LDR	R2, [IP, #VIC_IntSelect]	@ Clear corresponding bit in the VICIntSelect
     4a0:	e59c200c 	ldr	r2, [ip, #12]
	BIC	R2, R1
     4a4:	e1c22001 	bic	r2, r2, r1
	STR	R2, [IP, #VIC_IntSelect]
     4a8:	e58c200c 	str	r2, [ip, #12]
	STR	R1, [IP, #VIC_IntEnable]	@ Enable corresponding interrupt
     4ac:	e58c1010 	str	r1, [ip, #16]
	MOVS	PC, LR
     4b0:	e1b0f00e 	movs	pc, lr

000004b4 <sel_fiq>:

sel_fiq:
	CMP	R0, #32				@ Range check
     4b4:	e3500020 	cmp	r0, #32
	MOVCSS	PC, LR
     4b8:	21b0f00e 	movscs	pc, lr
	LDR	IP, =LPC_BASE_VIC
     4bc:	e59fc030 	ldr	ip, [pc, #48]	; 4f4 <store_fiq+0x10>
	MOV	R1, #1				@ Set corresponding bit in the VICIntSelect
     4c0:	e3a01001 	mov	r1, #1
	MOV	R1, R1, LSL R0
     4c4:	e1a01011 	lsl	r1, r1, r0
	STR	R1, [IP, #VIC_IntSelect]
     4c8:	e58c100c 	str	r1, [ip, #12]
	STR	R1, [IP, #VIC_IntEnable]	@ Enable corresponding interrupt
     4cc:	e58c1010 	str	r1, [ip, #16]
	MOVS	PC, LR
     4d0:	e1b0f00e 	movs	pc, lr

000004d4 <load_fiq>:

load_fiq:
	MSR	CPSR_c, #M_FIQ | B_Fiq
     4d4:	e321f051 	msr	CPSR_c, #81	; 0x51
	LDMIA	R0!, {R8-R12}			@ Load the memory to five shadow registers
     4d8:	e8b01f00 	ldm	r0!, {r8, r9, sl, fp, ip}
	MSR	CPSR_c, #M_SVC
     4dc:	e321f013 	msr	CPSR_c, #19
	MOVS	PC, LR
     4e0:	e1b0f00e 	movs	pc, lr

000004e4 <store_fiq>:

store_fiq:
	MSR	CPSR_c, #M_FIQ | B_Fiq
     4e4:	e321f051 	msr	CPSR_c, #81	; 0x51
	STMIA	R0!, {R8-R12}			@ Store five shadow registers to the memory
     4e8:	e8a01f00 	stmia	r0!, {r8, r9, sl, fp, ip}
	MSR	CPSR_c, #M_SVC
     4ec:	e321f013 	msr	CPSR_c, #19
	MOVS	PC, LR
     4f0:	e1b0f00e 	movs	pc, lr
	BIC	R0, R0, #B_Irq | B_Fiq
	MSR	SPSR_c, R0
	MOVS	PC, LR

clear_vect:
	LDR	IP, =LPC_BASE_VIC
     4f4:	fffff000 	.word	0xfffff000
	MOVS	PC, LR

reg_irq:
	CMP	R0, #32				@ Range check
	MOVCSS	PC, LR
	LDR	IP, =(LPC_BASE_VIC+VIC_VectAddr0)
     4f8:	fffff100 	.word	0xfffff100
	STR	R1, [IP, R0, LSL #2]		@ Set VICVectVectAddr<n>
	LDR	IP, =(LPC_BASE_VIC+VIC_VectPriority0)
     4fc:	fffff200 	.word	0xfffff200

00000500 <Copy_un2al>:
@ void Copy_un2al (DWORD *dst, const BYTE *src, int count);
.global Copy_un2al
.type Copy_un2al, %function
.func Copy_un2al
Copy_un2al:
	STMFD	SP!, {R4-R8}
     500:	e92d01f0 	push	{r4, r5, r6, r7, r8}
	ANDS	IP, R1, #3
     504:	e211c003 	ands	ip, r1, #3
	BEQ	lb_align
     508:	0a000012 	beq	558 <lb_align>

	BIC	R1, #3
     50c:	e3c11003 	bic	r1, r1, #3
	MOV	IP, IP, LSL #3
     510:	e1a0c18c 	lsl	ip, ip, #3
	RSB	R8, IP, #32
     514:	e26c8020 	rsb	r8, ip, #32
	LDMIA	R1!, {R7}
     518:	e8b10080 	ldm	r1!, {r7}
1:	MOV	R3, R7
     51c:	e1a03007 	mov	r3, r7
	LDMIA	R1!, {R4-R7}
     520:	e8b100f0 	ldm	r1!, {r4, r5, r6, r7}
	MOV	R3, R3, LSR IP
     524:	e1a03c33 	lsr	r3, r3, ip
	ORR	R3, R3, R4, LSL R8
     528:	e1833814 	orr	r3, r3, r4, lsl r8
	MOV	R4, R4, LSR IP
     52c:	e1a04c34 	lsr	r4, r4, ip
	ORR	R4, R4, R5, LSL R8
     530:	e1844815 	orr	r4, r4, r5, lsl r8
	MOV	R5, R5, LSR IP
     534:	e1a05c35 	lsr	r5, r5, ip
	ORR	R5, R5, R6, LSL R8
     538:	e1855816 	orr	r5, r5, r6, lsl r8
	MOV	R6, R6, LSR IP
     53c:	e1a06c36 	lsr	r6, r6, ip
	ORR	R6, R6, R7, LSL R8
     540:	e1866817 	orr	r6, r6, r7, lsl r8
	SUBS	R2, R2, #16
     544:	e2522010 	subs	r2, r2, #16
	STMIA	R0!, {R3-R6}
     548:	e8a00078 	stmia	r0!, {r3, r4, r5, r6}
	BNE	1b
     54c:	1afffff2 	bne	51c <Copy_un2al+0x1c>
	LDMFD	SP!, {R4-R8}
     550:	e8bd01f0 	pop	{r4, r5, r6, r7, r8}
	BX	LR
     554:	e12fff1e 	bx	lr

00000558 <lb_align>:

lb_align:
	LDMIA	R1!, {R3-R6}
     558:	e8b10078 	ldm	r1!, {r3, r4, r5, r6}
	SUBS	R2, R2, #16
     55c:	e2522010 	subs	r2, r2, #16
	STMIA	R0!, {R3-R6}
     560:	e8a00078 	stmia	r0!, {r3, r4, r5, r6}
	BNE	lb_align
     564:	1afffffb 	bne	558 <lb_align>
	LDMFD	SP!, {R4-R8}
     568:	e8bd01f0 	pop	{r4, r5, r6, r7, r8}
	BX	LR
     56c:	e12fff1e 	bx	lr

00000570 <Copy_al2un>:
@ void Copy_al2un (BYTE *dst, const DWORD *src, int count);
.global Copy_al2un
.type Copy_al2un, %function
.func Copy_al2un
Copy_al2un:
	STMFD	SP!, {R4-R8}
     570:	e92d01f0 	push	{r4, r5, r6, r7, r8}
	ANDS	IP, R0, #3
     574:	e210c003 	ands	ip, r0, #3
	BEQ	sb_align
     578:	0a000021 	beq	604 <sb_align>

	MOV	IP, IP, LSL #3
     57c:	e1a0c18c 	lsl	ip, ip, #3
	RSB	R8, IP, #32
     580:	e26c8020 	rsb	r8, ip, #32

	LDMIA	R1!, {R4-R7}
     584:	e8b100f0 	ldm	r1!, {r4, r5, r6, r7}
1:	STRB	R4, [R0], #1
     588:	e4c04001 	strb	r4, [r0], #1
	MOV	R4, R4, LSR #8
     58c:	e1a04424 	lsr	r4, r4, #8
	TST	R0, #3
     590:	e3100003 	tst	r0, #3
	BNE	1b
     594:	1afffffb 	bne	588 <Copy_al2un+0x18>
	ORR	R4, R4, R5, LSL IP
     598:	e1844c15 	orr	r4, r4, r5, lsl ip
	MOV	R5, R5, LSR R8
     59c:	e1a05835 	lsr	r5, r5, r8
	ORR	R5, R5, R6, LSL IP
     5a0:	e1855c16 	orr	r5, r5, r6, lsl ip
	MOV	R6, R6, LSR R8
     5a4:	e1a06836 	lsr	r6, r6, r8
	ORR	R6, R6, R7, LSL IP
     5a8:	e1866c17 	orr	r6, r6, r7, lsl ip
	SUBS	R2, R2, #16
     5ac:	e2522010 	subs	r2, r2, #16
	STMIA	R0!, {R4-R6}
     5b0:	e8a00070 	stmia	r0!, {r4, r5, r6}

2:	MOV	R3, R7
     5b4:	e1a03007 	mov	r3, r7
	LDMIA	R1!, {R4-R7}
     5b8:	e8b100f0 	ldm	r1!, {r4, r5, r6, r7}
	MOV	R3, R3, LSR R8
     5bc:	e1a03833 	lsr	r3, r3, r8
	ORR	R3, R3, R4, LSL IP
     5c0:	e1833c14 	orr	r3, r3, r4, lsl ip
	MOV	R4, R4, LSR R8
     5c4:	e1a04834 	lsr	r4, r4, r8
	ORR	R4, R4, R5, LSL IP
     5c8:	e1844c15 	orr	r4, r4, r5, lsl ip
	MOV	R5, R5, LSR R8
     5cc:	e1a05835 	lsr	r5, r5, r8
	ORR	R5, R5, R6, LSL IP
     5d0:	e1855c16 	orr	r5, r5, r6, lsl ip
	MOV	R6, R6, LSR R8
     5d4:	e1a06836 	lsr	r6, r6, r8
	ORR	R6, R6, R7, LSL IP
     5d8:	e1866c17 	orr	r6, r6, r7, lsl ip
	SUBS	R2, R2, #16
     5dc:	e2522010 	subs	r2, r2, #16
	STMIA	R0!, {R3-R6}
     5e0:	e8a00078 	stmia	r0!, {r3, r4, r5, r6}
	BNE	2b
     5e4:	1afffff2 	bne	5b4 <Copy_al2un+0x44>

	MOV	R7, R7, LSR R8
     5e8:	e1a07837 	lsr	r7, r7, r8
3:	SUBS	IP, IP, #8
     5ec:	e25cc008 	subs	ip, ip, #8
	STRB	R7, [R0], #1
     5f0:	e4c07001 	strb	r7, [r0], #1
	MOV	R7, R7, LSR #8
     5f4:	e1a07427 	lsr	r7, r7, #8
	BNE	3b
     5f8:	1afffffb 	bne	5ec <Copy_al2un+0x7c>

	LDMFD	SP!, {R4-R8}
     5fc:	e8bd01f0 	pop	{r4, r5, r6, r7, r8}
	BX	LR
     600:	e12fff1e 	bx	lr

00000604 <sb_align>:

sb_align:
	LDMIA	R1!, {R3-R6}
     604:	e8b10078 	ldm	r1!, {r3, r4, r5, r6}
	SUBS	R2, #16
     608:	e2522010 	subs	r2, r2, #16
	STMIA	R0!, {R3-R6}
     60c:	e8a00078 	stmia	r0!, {r3, r4, r5, r6}
	BNE	sb_align
     610:	1afffffb 	bne	604 <sb_align>
	LDMFD	SP!, {R4-R8}
     614:	e8bd01f0 	pop	{r4, r5, r6, r7, r8}
	BX	LR
     618:	e12fff1e 	bx	lr

0000061c <gpio_init>:
uint8_t channel = 1;	//adc channel
uint8_t native = 0;
uint16_t volts, curr;
void gpio_init (void)
{	
	SCS |= 1;
     61c:	2101      	movs	r1, #1
     61e:	4a0e      	ldr	r2, [pc, #56]	; (658 <gpio_init+0x3c>)
     620:	6813      	ldr	r3, [r2, #0]
     622:	430b      	orrs	r3, r1
     624:	6013      	str	r3, [r2, #0]
	FIO2MASK = 0;
     626:	2200      	movs	r2, #0
	/* Leds to output */
	FIO2DIR |= (1 << LED1) | (1 << LED2);
     628:	2003      	movs	r0, #3
uint8_t native = 0;
uint16_t volts, curr;
void gpio_init (void)
{	
	SCS |= 1;
	FIO2MASK = 0;
     62a:	4b0c      	ldr	r3, [pc, #48]	; (65c <gpio_init+0x40>)
	/* Leds to output */
	FIO2DIR |= (1 << LED1) | (1 << LED2);
     62c:	490c      	ldr	r1, [pc, #48]	; (660 <gpio_init+0x44>)
uint8_t native = 0;
uint16_t volts, curr;
void gpio_init (void)
{	
	SCS |= 1;
	FIO2MASK = 0;
     62e:	601a      	str	r2, [r3, #0]
	/* Leds to output */
	FIO2DIR |= (1 << LED1) | (1 << LED2);
     630:	680b      	ldr	r3, [r1, #0]
     632:	4303      	orrs	r3, r0
     634:	600b      	str	r3, [r1, #0]

	/* FIO1MASK = 0xFFFFFFFF & (0 << DAC) | (0 << ADC); */
	FIO1MASK = 0;
     636:	4b0b      	ldr	r3, [pc, #44]	; (664 <gpio_init+0x48>)
     638:	601a      	str	r2, [r3, #0]
	FIO1DIR |=  (1 << DAC) | (1 << ADC) | (1 << ADC_DIN) | (1 << ADC_SCLK);	/*  Slave select pins  */
     63a:	4b0b      	ldr	r3, [pc, #44]	; (668 <gpio_init+0x4c>)
     63c:	490b      	ldr	r1, [pc, #44]	; (66c <gpio_init+0x50>)
     63e:	681a      	ldr	r2, [r3, #0]
     640:	430a      	orrs	r2, r1
     642:	601a      	str	r2, [r3, #0]
	FIO1DIR &= ~(1 << ADC_DOUT);
     644:	4a0a      	ldr	r2, [pc, #40]	; (670 <gpio_init+0x54>)
     646:	6819      	ldr	r1, [r3, #0]
     648:	400a      	ands	r2, r1
     64a:	601a      	str	r2, [r3, #0]
	/* FIO1DIR |=  (1 << DAC) | (1 << ADC);[> 	Slave select pins  <] */
	FIO1SET |= (1 << ADC) | (1 << DAC) | (1 << ADC_SCLK);	 /*  Set hight level  */
     64c:	4a09      	ldr	r2, [pc, #36]	; (674 <gpio_init+0x58>)
     64e:	490a      	ldr	r1, [pc, #40]	; (678 <gpio_init+0x5c>)
     650:	6813      	ldr	r3, [r2, #0]
     652:	430b      	orrs	r3, r1
     654:	6013      	str	r3, [r2, #0]
}
     656:	4770      	bx	lr
     658:	e01fc1a0 	.word	0xe01fc1a0
     65c:	3fffc050 	.word	0x3fffc050
     660:	3fffc040 	.word	0x3fffc040
     664:	3fffc030 	.word	0x3fffc030
     668:	3fffc020 	.word	0x3fffc020
     66c:	21140000 	.word	0x21140000
     670:	ff7fffff 	.word	0xff7fffff
     674:	3fffc038 	.word	0x3fffc038
     678:	20140000 	.word	0x20140000

0000067c <led_set>:
void led_set(uint8_t led)
{
	FIO2SET |= (1 << led);
     67c:	2201      	movs	r2, #1
     67e:	4082      	lsls	r2, r0
     680:	1c10      	adds	r0, r2, #0
     682:	4902      	ldr	r1, [pc, #8]	; (68c <led_set+0x10>)
     684:	680b      	ldr	r3, [r1, #0]
     686:	4318      	orrs	r0, r3
     688:	6008      	str	r0, [r1, #0]
}
     68a:	4770      	bx	lr
     68c:	3fffc058 	.word	0x3fffc058

00000690 <led_clear>:
void led_clear(uint8_t led)
{
	FIO2CLR |= (1 << led);
     690:	2201      	movs	r2, #1
     692:	4082      	lsls	r2, r0
     694:	1c10      	adds	r0, r2, #0
     696:	4902      	ldr	r1, [pc, #8]	; (6a0 <led_clear+0x10>)
     698:	680b      	ldr	r3, [r1, #0]
     69a:	4318      	orrs	r0, r3
     69c:	6008      	str	r0, [r1, #0]
}
     69e:	4770      	bx	lr
     6a0:	3fffc05c 	.word	0x3fffc05c

000006a4 <gpio_set>:
void gpio_set(uint8_t port, uint8_t pin)
{
     6a4:	b510      	push	{r4, lr}
	switch (port)
     6a6:	2801      	cmp	r0, #1
     6a8:	d00f      	beq.n	6ca <gpio_set+0x26>
     6aa:	2800      	cmp	r0, #0
     6ac:	d009      	beq.n	6c2 <gpio_set+0x1e>
     6ae:	2802      	cmp	r0, #2
     6b0:	d110      	bne.n	6d4 <gpio_set+0x30>
			break;
		case 1:
			FIO1SET |= (1 << pin);
			break;
		case 2:
			FIO2SET |= (1 << pin);
     6b2:	2201      	movs	r2, #1
     6b4:	408a      	lsls	r2, r1
     6b6:	1c10      	adds	r0, r2, #0
     6b8:	4c08      	ldr	r4, [pc, #32]	; (6dc <gpio_set+0x38>)
     6ba:	6823      	ldr	r3, [r4, #0]
     6bc:	4318      	orrs	r0, r3
     6be:	6020      	str	r0, [r4, #0]
			break;
     6c0:	e008      	b.n	6d4 <gpio_set+0x30>
void gpio_set(uint8_t port, uint8_t pin)
{
	switch (port)
	{
		case 0:
			FIO0SET |= (1 << pin);
     6c2:	4a07      	ldr	r2, [pc, #28]	; (6e0 <gpio_set+0x3c>)
     6c4:	2001      	movs	r0, #1
     6c6:	6813      	ldr	r3, [r2, #0]
     6c8:	e001      	b.n	6ce <gpio_set+0x2a>
			break;
		case 1:
			FIO1SET |= (1 << pin);
     6ca:	4a06      	ldr	r2, [pc, #24]	; (6e4 <gpio_set+0x40>)
     6cc:	6813      	ldr	r3, [r2, #0]
     6ce:	4088      	lsls	r0, r1
     6d0:	4318      	orrs	r0, r3
     6d2:	6010      	str	r0, [r2, #0]
			FIO2SET |= (1 << pin);
			break;
		default:
			break;	
	}
}
     6d4:	bc10      	pop	{r4}
     6d6:	bc01      	pop	{r0}
     6d8:	4700      	bx	r0
     6da:	46c0      	nop			; (mov r8, r8)
     6dc:	3fffc058 	.word	0x3fffc058
     6e0:	3fffc018 	.word	0x3fffc018
     6e4:	3fffc038 	.word	0x3fffc038

000006e8 <gpio_clear>:
void gpio_clear(uint8_t port, uint8_t pin)
{
     6e8:	b510      	push	{r4, lr}
	switch (port)
     6ea:	2801      	cmp	r0, #1
     6ec:	d00f      	beq.n	70e <gpio_clear+0x26>
     6ee:	2800      	cmp	r0, #0
     6f0:	d009      	beq.n	706 <gpio_clear+0x1e>
     6f2:	2802      	cmp	r0, #2
     6f4:	d110      	bne.n	718 <gpio_clear+0x30>
			break;
		case 1:
			FIO1CLR |= (1 << pin);
			break;
		case 2:
			FIO2CLR |= (1 << pin);
     6f6:	2201      	movs	r2, #1
     6f8:	408a      	lsls	r2, r1
     6fa:	1c10      	adds	r0, r2, #0
     6fc:	4c08      	ldr	r4, [pc, #32]	; (720 <gpio_clear+0x38>)
     6fe:	6823      	ldr	r3, [r4, #0]
     700:	4318      	orrs	r0, r3
     702:	6020      	str	r0, [r4, #0]
			break;
     704:	e008      	b.n	718 <gpio_clear+0x30>
void gpio_clear(uint8_t port, uint8_t pin)
{
	switch (port)
	{
		case 0:
			FIO0CLR |= (1 << pin);
     706:	4a07      	ldr	r2, [pc, #28]	; (724 <gpio_clear+0x3c>)
     708:	2001      	movs	r0, #1
     70a:	6813      	ldr	r3, [r2, #0]
     70c:	e001      	b.n	712 <gpio_clear+0x2a>
			break;
		case 1:
			FIO1CLR |= (1 << pin);
     70e:	4a06      	ldr	r2, [pc, #24]	; (728 <gpio_clear+0x40>)
     710:	6813      	ldr	r3, [r2, #0]
     712:	4088      	lsls	r0, r1
     714:	4318      	orrs	r0, r3
     716:	6010      	str	r0, [r2, #0]
			FIO2CLR |= (1 << pin);
			break;
		default:
			break;	
	}
}
     718:	bc10      	pop	{r4}
     71a:	bc01      	pop	{r0}
     71c:	4700      	bx	r0
     71e:	46c0      	nop			; (mov r8, r8)
     720:	3fffc05c 	.word	0x3fffc05c
     724:	3fffc01c 	.word	0x3fffc01c
     728:	3fffc03c 	.word	0x3fffc03c

0000072c <pll_init>:
void pll_init(void)
{
	// 1. Init OSC
	SCS = (1 << 5);
     72c:	2220      	movs	r2, #32
     72e:	4b1d      	ldr	r3, [pc, #116]	; (7a4 <pll_init+0x78>)
		default:
			break;	
	}
}
void pll_init(void)
{
     730:	b570      	push	{r4, r5, r6, lr}
	// 1. Init OSC
	SCS = (1 << 5);
     732:	601a      	str	r2, [r3, #0]
	// 2.  Wait for OSC ready
	while (!(SCS & 0x40)); //	[>Osc stabilization procedure<] 
     734:	681a      	ldr	r2, [r3, #0]
     736:	0652      	lsls	r2, r2, #25
     738:	d5fc      	bpl.n	734 <pll_init+0x8>
	// 3. Disconnect PLL
	PLLCON = 1; 
	PLLFEED = 0xAA;
     73a:	20aa      	movs	r0, #170	; 0xaa
	PLLFEED = 0x55;
     73c:	2155      	movs	r1, #85	; 0x55
	// 1. Init OSC
	SCS = (1 << 5);
	// 2.  Wait for OSC ready
	while (!(SCS & 0x40)); //	[>Osc stabilization procedure<] 
	// 3. Disconnect PLL
	PLLCON = 1; 
     73e:	2501      	movs	r5, #1
	PLLFEED = 0xAA;
	PLLFEED = 0x55;
	// 4. Disable PLL
	PLLCON = 0;
     740:	2400      	movs	r4, #0
	SCS = (1 << 5);
	// 2.  Wait for OSC ready
	while (!(SCS & 0x40)); //	[>Osc stabilization procedure<] 
	// 3. Disconnect PLL
	PLLCON = 1; 
	PLLFEED = 0xAA;
     742:	4b19      	ldr	r3, [pc, #100]	; (7a8 <pll_init+0x7c>)
	// 1. Init OSC
	SCS = (1 << 5);
	// 2.  Wait for OSC ready
	while (!(SCS & 0x40)); //	[>Osc stabilization procedure<] 
	// 3. Disconnect PLL
	PLLCON = 1; 
     744:	4a19      	ldr	r2, [pc, #100]	; (7ac <pll_init+0x80>)
     746:	6015      	str	r5, [r2, #0]
	PLLFEED = 0xAA;
     748:	6018      	str	r0, [r3, #0]
	PLLFEED = 0x55;
     74a:	6019      	str	r1, [r3, #0]
	// 4. Disable PLL
	PLLCON = 0;
     74c:	6014      	str	r4, [r2, #0]
	PLLFEED = 0xAA;
	PLLFEED = 0x55;
	// 5. Select source clock for PLL
	CLKSRCSEL = 1;			/* Select external as the PLL clock source */
     74e:	4c18      	ldr	r4, [pc, #96]	; (7b0 <pll_init+0x84>)
	PLLCON = 1; 
	PLLFEED = 0xAA;
	PLLFEED = 0x55;
	// 4. Disable PLL
	PLLCON = 0;
	PLLFEED = 0xAA;
     750:	6018      	str	r0, [r3, #0]
	PLLFEED = 0x55;
	// 5. Select source clock for PLL
	CLKSRCSEL = 1;			/* Select external as the PLL clock source */
	// 6. Set PLL settings 288 MHz
	PLLCFG = ((2 - 1) << 16) | (24 - 1);	/* Re-configure PLL */
     752:	4e18      	ldr	r6, [pc, #96]	; (7b4 <pll_init+0x88>)
	PLLFEED = 0xAA;
	PLLFEED = 0x55;
	// 4. Disable PLL
	PLLCON = 0;
	PLLFEED = 0xAA;
	PLLFEED = 0x55;
     754:	6019      	str	r1, [r3, #0]
	// 5. Select source clock for PLL
	CLKSRCSEL = 1;			/* Select external as the PLL clock source */
     756:	6025      	str	r5, [r4, #0]
	// 6. Set PLL settings 288 MHz
	PLLCFG = ((2 - 1) << 16) | (24 - 1);	/* Re-configure PLL */
     758:	4c17      	ldr	r4, [pc, #92]	; (7b8 <pll_init+0x8c>)
     75a:	6026      	str	r6, [r4, #0]
	PLLFEED = 0xAA;
     75c:	6018      	str	r0, [r3, #0]
	PLLFEED = 0x55;
     75e:	6019      	str	r1, [r3, #0]
	// 7. Enable PLL
	PLLCON |= 1 << 0; 
     760:	6814      	ldr	r4, [r2, #0]
     762:	432c      	orrs	r4, r5
     764:	6014      	str	r4, [r2, #0]
	PLLFEED = 0xAA;
     766:	6018      	str	r0, [r3, #0]
	PLLFEED = 0x55;
     768:	6019      	str	r1, [r3, #0]
	// 8. Wait for the PLL to achieve lock
	while ((PLLSTAT & (1 << 26)) == 0);	/* Wait for PLL locked */
     76a:	4914      	ldr	r1, [pc, #80]	; (7bc <pll_init+0x90>)
     76c:	6809      	ldr	r1, [r1, #0]
     76e:	0149      	lsls	r1, r1, #5
     770:	d5fb      	bpl.n	76a <pll_init+0x3e>
	// 9. Set clk divider settings
	CCLKCFG   = 4-1;            // 1/4 Fpll - 72 MHz; 1/5 - 60
     772:	2003      	movs	r0, #3
     774:	4912      	ldr	r1, [pc, #72]	; (7c0 <pll_init+0x94>)
     776:	6008      	str	r0, [r1, #0]
	//USBCLKCFG = 6-1;            // 1/6 Fpll - 48 MHz
	PCLKSEL0 = PCLKSEL1 = 0;    // other peripherals
     778:	2000      	movs	r0, #0
     77a:	4912      	ldr	r1, [pc, #72]	; (7c4 <pll_init+0x98>)
     77c:	4c12      	ldr	r4, [pc, #72]	; (7c8 <pll_init+0x9c>)
     77e:	6008      	str	r0, [r1, #0]
     780:	6020      	str	r0, [r4, #0]


	PCLKSEL1 = 1 << 2;	//GPIO: 0 - 1/4; 1 - 1; 2 - 1/2; 3 - 1/8
     782:	3004      	adds	r0, #4
     784:	6008      	str	r0, [r1, #0]

	// 10. Connect the PLL
	PLLCON |= 1 << 1;
     786:	6811      	ldr	r1, [r2, #0]
     788:	3802      	subs	r0, #2
     78a:	4301      	orrs	r1, r0
     78c:	6011      	str	r1, [r2, #0]
	PLLFEED = 0xAA;
     78e:	22aa      	movs	r2, #170	; 0xaa
     790:	601a      	str	r2, [r3, #0]
	PLLFEED = 0x55;
     792:	3a55      	subs	r2, #85	; 0x55
     794:	601a      	str	r2, [r3, #0]

	ClearVector();			/* Initialie VIC */
     796:	f000 f82f 	bl	7f8 <ClearVector>
	/* GPIOInit(); */
	IrqEnable();			/* Enable Irq */
     79a:	f000 f82b 	bl	7f4 <IrqEnable>

}
     79e:	bc70      	pop	{r4, r5, r6}
     7a0:	bc01      	pop	{r0}
     7a2:	4700      	bx	r0
     7a4:	e01fc1a0 	.word	0xe01fc1a0
     7a8:	e01fc08c 	.word	0xe01fc08c
     7ac:	e01fc080 	.word	0xe01fc080
     7b0:	e01fc10c 	.word	0xe01fc10c
     7b4:	00010017 	.word	0x00010017
     7b8:	e01fc084 	.word	0xe01fc084
     7bc:	e01fc088 	.word	0xe01fc088
     7c0:	e01fc104 	.word	0xe01fc104
     7c4:	e01fc1ac 	.word	0xe01fc1ac
     7c8:	e01fc1a8 	.word	0xe01fc1a8

000007cc <main>:


int main (void)
{
     7cc:	b508      	push	{r3, lr}
	uint16_t i, j, rise; 
	pll_init();
     7ce:	f7ff ffad 	bl	72c <pll_init>
	uart0_init();	
     7d2:	f000 f89d 	bl	910 <uart0_init>
	/* SPI0_init(); */
	timer0_init();
     7d6:	f000 fc0b 	bl	ff0 <timer0_init>
	gpio_init();
     7da:	f7ff ff1f 	bl	61c <gpio_init>
	adc_init();
     7de:	f000 fb3e 	bl	e5e <adc_init>
	UART0_send("\nLPC initialized\n", 17);
     7e2:	4802      	ldr	r0, [pc, #8]	; (7ec <main+0x20>)
     7e4:	2111      	movs	r1, #17
     7e6:	f000 f907 	bl	9f8 <UART0_send>

	while(1)
	{
	}
     7ea:	e7fe      	b.n	7ea <main+0x1e>
     7ec:	00002971 	.word	0x00002971

000007f0 <IrqDisable>:


/* Disable/Enable Irq */
void IrqDisable (void)
{
	asm ("swi 0\n");
     7f0:	df00      	svc	0
}
     7f2:	4770      	bx	lr

000007f4 <IrqEnable>:

void IrqEnable (void)
{
	asm ("swi 1\n");
     7f4:	df01      	svc	1
}
     7f6:	4770      	bx	lr

000007f8 <ClearVector>:


/* Unregister all ISRs */
void ClearVector (void)
{
	asm ("swi 2\n");
     7f8:	df02      	svc	2
}
     7fa:	4770      	bx	lr

000007fc <RegisterIrq>:
	int irq,
	void(*isr)(void),
	int pri
)
{
	asm (
     7fc:	df03      	svc	3
	"@ MOV R0, %0\n"
	"@ MOV R1, %1\n"
	"@ MOV R2, %2\n"
	"swi 3\n" : : "r" (irq), "r" (isr), "r" (pri)
	);
}
     7fe:	4770      	bx	lr

00000800 <SelectFiq>:
/* Switch an interrtupt source as FIQ */
void SelectFiq (
	int irq
)
{
	asm (
     800:	df04      	svc	4
	"@ MOV R0, %0\n"
	"swi 4\n" : : "r" (irq)
	);
}
     802:	4770      	bx	lr

00000804 <LoadFiqRegs>:
/* Load shadow regs R8-R12 from memory */
void LoadFiqRegs (
	long *regs
)
{
	asm (
     804:	df05      	svc	5
	"@ MOV R0, %0\n"
	"swi 5\n" : : "r" (regs)
	);
}
     806:	4770      	bx	lr

00000808 <StoreFiqRegs>:
/* Store shadow regs R8-R12 to memory */
void StoreFiqRegs (
	long *regs
)
{
	asm (
     808:	df06      	svc	6
	"@ MOV R0, %0\n"
	"swi 6\n" : : "r" (regs)
	);
}
     80a:	4770      	bx	lr

0000080c <Isr_UART0>:
	uint16_t	ri, wi, ct;
	uint8_t		buff[UART0_RXB];
} RxBuff0;

void Isr_UART0 (void)
{
     80c:	b538      	push	{r3, r4, r5, lr}

	uint8_t iir, d;
	int i;

	iir = U0LSR;		/* 	[> [> Get interrupt ID <] <] */
     80e:	4b14      	ldr	r3, [pc, #80]	; (860 <Isr_UART0+0x54>)
     810:	681a      	ldr	r2, [r3, #0]
     812:	4b14      	ldr	r3, [pc, #80]	; (864 <Isr_UART0+0x58>)
	if(iir & 1 != 0)
	{	
		d = U0RBR;
     814:	681b      	ldr	r3, [r3, #0]
     816:	061b      	lsls	r3, r3, #24
     818:	0e1b      	lsrs	r3, r3, #24

	uint8_t iir, d;
	int i;

	iir = U0LSR;		/* 	[> [> Get interrupt ID <] <] */
	if(iir & 1 != 0)
     81a:	07d2      	lsls	r2, r2, #31
     81c:	d510      	bpl.n	840 <Isr_UART0+0x34>
     81e:	4c12      	ldr	r4, [pc, #72]	; (868 <Isr_UART0+0x5c>)
     820:	4812      	ldr	r0, [pc, #72]	; (86c <Isr_UART0+0x60>)
	{	
		d = U0RBR;
		if (d == '\n')
     822:	2b0a      	cmp	r3, #10
     824:	d108      	bne.n	838 <Isr_UART0+0x2c>
		{
			resiever[rec_len++] = 0;	/* Make null-terminated string */
     826:	2500      	movs	r5, #0
     828:	7823      	ldrb	r3, [r4, #0]
     82a:	1c5a      	adds	r2, r3, #1
     82c:	7022      	strb	r2, [r4, #0]
     82e:	54c5      	strb	r5, [r0, r3]
			process_command(resiever);
     830:	f000 f98c 	bl	b4c <process_command>
			rec_len = 0;
     834:	7025      	strb	r5, [r4, #0]
     836:	e00d      	b.n	854 <Isr_UART0+0x48>
		}else{
			resiever[rec_len++] = d;
     838:	7822      	ldrb	r2, [r4, #0]
     83a:	1c51      	adds	r1, r2, #1
     83c:	7021      	strb	r1, [r4, #0]
     83e:	5483      	strb	r3, [r0, r2]
		}
	}else{
		d = U0RBR;
	}
	if (d == 'L')
     840:	2b4c      	cmp	r3, #76	; 0x4c
     842:	d102      	bne.n	84a <Isr_UART0+0x3e>
	{
		FIO2SET = (1 << LED1) | (1 << LED2);
     844:	2203      	movs	r2, #3
     846:	4b0a      	ldr	r3, [pc, #40]	; (870 <Isr_UART0+0x64>)
     848:	e003      	b.n	852 <Isr_UART0+0x46>
	}else if (d == 'O')
     84a:	2b4f      	cmp	r3, #79	; 0x4f
     84c:	d102      	bne.n	854 <Isr_UART0+0x48>
	{
		FIO2CLR = (1 << LED1) | (1 << LED2);
     84e:	2203      	movs	r2, #3
     850:	4b08      	ldr	r3, [pc, #32]	; (874 <Isr_UART0+0x68>)
     852:	601a      	str	r2, [r3, #0]

	}
	VICVectAddr = 0;
     854:	2200      	movs	r2, #0
     856:	4b08      	ldr	r3, [pc, #32]	; (878 <Isr_UART0+0x6c>)
     858:	601a      	str	r2, [r3, #0]

}
     85a:	bc38      	pop	{r3, r4, r5}
     85c:	bc01      	pop	{r0}
     85e:	4700      	bx	r0
     860:	e000c014 	.word	0xe000c014
     864:	e000c000 	.word	0xe000c000
     868:	40000436 	.word	0x40000436
     86c:	4000054a 	.word	0x4000054a
     870:	3fffc058 	.word	0x3fffc058
     874:	3fffc05c 	.word	0x3fffc05c
     878:	ffffff00 	.word	0xffffff00

0000087c <uart0_test>:


int uart0_test (void)
{
	return RxBuff0.ct;
     87c:	4b01      	ldr	r3, [pc, #4]	; (884 <uart0_test+0x8>)
     87e:	88d8      	ldrh	r0, [r3, #6]
}
     880:	4770      	bx	lr
     882:	46c0      	nop			; (mov r8, r8)
     884:	40000436 	.word	0x40000436

00000888 <uart0_getc>:
{
	uint8_t d;
	int i;

	/* Wait while Rx buffer is empty */
	while (!RxBuff0.ct) ;
     888:	4b0b      	ldr	r3, [pc, #44]	; (8b8 <uart0_getc+0x30>)
     88a:	88da      	ldrh	r2, [r3, #6]
     88c:	3302      	adds	r3, #2
     88e:	2a00      	cmp	r2, #0
     890:	d0fa      	beq.n	888 <uart0_getc>

	i = RxBuff0.ri;	/* Get a byte from Rx buffer */
     892:	881a      	ldrh	r2, [r3, #0]
	d = RxBuff0.buff[i++];
     894:	1899      	adds	r1, r3, r2
     896:	7988      	ldrb	r0, [r1, #6]
	RxBuff0.ri = i % UART0_RXB;
     898:	217f      	movs	r1, #127	; 0x7f

	/* Wait while Rx buffer is empty */
	while (!RxBuff0.ct) ;

	i = RxBuff0.ri;	/* Get a byte from Rx buffer */
	d = RxBuff0.buff[i++];
     89a:	3201      	adds	r2, #1
	RxBuff0.ri = i % UART0_RXB;
     89c:	400a      	ands	r2, r1
     89e:	801a      	strh	r2, [r3, #0]
	U0IER = 0;		/* Disable interrupts */
     8a0:	2200      	movs	r2, #0
     8a2:	4906      	ldr	r1, [pc, #24]	; (8bc <uart0_getc+0x34>)
     8a4:	600a      	str	r2, [r1, #0]
	RxBuff0.ct--;
     8a6:	889a      	ldrh	r2, [r3, #4]
     8a8:	3a01      	subs	r2, #1
     8aa:	0412      	lsls	r2, r2, #16
     8ac:	0c12      	lsrs	r2, r2, #16
     8ae:	809a      	strh	r2, [r3, #4]
	U0IER = 0x07;	/* Reenable interrupt */
     8b0:	2307      	movs	r3, #7
     8b2:	600b      	str	r3, [r1, #0]

	return d;
}
     8b4:	4770      	bx	lr
     8b6:	46c0      	nop			; (mov r8, r8)
     8b8:	40000436 	.word	0x40000436
     8bc:	e000c004 	.word	0xe000c004

000008c0 <uart0_putc>:


void uart0_putc (uint8_t d)
{
     8c0:	b510      	push	{r4, lr}
	int i;

	/* Wait for Tx buffer ready */
	while (TxBuff0.ct >= UART0_TXB) ;
     8c2:	4b10      	ldr	r3, [pc, #64]	; (904 <uart0_putc+0x44>)
     8c4:	899a      	ldrh	r2, [r3, #12]
     8c6:	2a7f      	cmp	r2, #127	; 0x7f
     8c8:	d8fb      	bhi.n	8c2 <uart0_putc+0x2>

	U0IER = 0x05;		/* Disable Tx Interrupt */
     8ca:	2205      	movs	r2, #5
     8cc:	490e      	ldr	r1, [pc, #56]	; (908 <uart0_putc+0x48>)
     8ce:	600a      	str	r2, [r1, #0]
	if (TxBuff0.act) {
     8d0:	89da      	ldrh	r2, [r3, #14]
     8d2:	2a00      	cmp	r2, #0
     8d4:	d00c      	beq.n	8f0 <uart0_putc+0x30>
		i = TxBuff0.wi;	/* Put a byte into Tx byffer */
     8d6:	895a      	ldrh	r2, [r3, #10]
		TxBuff0.buff[i++] = d;
     8d8:	189c      	adds	r4, r3, r2
     8da:	7420      	strb	r0, [r4, #16]
		TxBuff0.wi = i % UART0_TXB;
     8dc:	207f      	movs	r0, #127	; 0x7f
	while (TxBuff0.ct >= UART0_TXB) ;

	U0IER = 0x05;		/* Disable Tx Interrupt */
	if (TxBuff0.act) {
		i = TxBuff0.wi;	/* Put a byte into Tx byffer */
		TxBuff0.buff[i++] = d;
     8de:	3201      	adds	r2, #1
		TxBuff0.wi = i % UART0_TXB;
     8e0:	4002      	ands	r2, r0
     8e2:	815a      	strh	r2, [r3, #10]
		TxBuff0.ct++;
     8e4:	899a      	ldrh	r2, [r3, #12]
     8e6:	3201      	adds	r2, #1
     8e8:	0412      	lsls	r2, r2, #16
     8ea:	0c12      	lsrs	r2, r2, #16
     8ec:	819a      	strh	r2, [r3, #12]
     8ee:	e003      	b.n	8f8 <uart0_putc+0x38>
	} else {
		U0THR = d;		/* Trigger Tx sequense */
     8f0:	4a06      	ldr	r2, [pc, #24]	; (90c <uart0_putc+0x4c>)
     8f2:	6010      	str	r0, [r2, #0]
		TxBuff0.act = 1;
     8f4:	2201      	movs	r2, #1
     8f6:	81da      	strh	r2, [r3, #14]
	}
	U0IER = 0x07;		/* Reenable Tx Interrupt */
     8f8:	2307      	movs	r3, #7
     8fa:	600b      	str	r3, [r1, #0]
}
     8fc:	bc10      	pop	{r4}
     8fe:	bc01      	pop	{r0}
     900:	4700      	bx	r0
     902:	46c0      	nop			; (mov r8, r8)
     904:	400004b6 	.word	0x400004b6
     908:	e000c004 	.word	0xe000c004
     90c:	e000c000 	.word	0xe000c000

00000910 <uart0_init>:


void uart0_init (void)
{
	//UART0
	PCONP |= 1 << PCUART0; // Питание на UART0
     910:	2108      	movs	r1, #8
     912:	4a16      	ldr	r2, [pc, #88]	; (96c <uart0_init+0x5c>)
	U0IER = 0x07;		/* Reenable Tx Interrupt */
}


void uart0_init (void)
{
     914:	b508      	push	{r3, lr}
	//UART0
	PCONP |= 1 << PCUART0; // Питание на UART0
     916:	6813      	ldr	r3, [r2, #0]
     918:	430b      	orrs	r3, r1
     91a:	6013      	str	r3, [r2, #0]
	//PCLKSEL0 |= 1 << PINSEL_UART0_0;      // PCLK = CCLK

	//8 bit lenght word,1 stop bit,disable parity generation,disable breake transmission, enable access to Divisor Latches
	U0LCR |= (1 << word_len_0)|(1 << word_len_1)|(1 << DLAB);
     91c:	4b14      	ldr	r3, [pc, #80]	; (970 <uart0_init+0x60>)
     91e:	681a      	ldr	r2, [r3, #0]
     920:	317b      	adds	r1, #123	; 0x7b
     922:	430a      	orrs	r2, r1
     924:	601a      	str	r2, [r3, #0]
	//f = 18 mGz,Baud = 115200.
	U0FDR = 0xC1;
     926:	4a13      	ldr	r2, [pc, #76]	; (974 <uart0_init+0x64>)
     928:	313e      	adds	r1, #62	; 0x3e
     92a:	6011      	str	r1, [r2, #0]
	U0DLL = 0x09;
     92c:	4a12      	ldr	r2, [pc, #72]	; (978 <uart0_init+0x68>)
     92e:	39b8      	subs	r1, #184	; 0xb8
     930:	6011      	str	r1, [r2, #0]
	U0DLM = 0x00;
     932:	2100      	movs	r1, #0
	U0LCR &= ~(1 << DLAB);//DLAB = 0
     934:	2080      	movs	r0, #128	; 0x80
	//8 bit lenght word,1 stop bit,disable parity generation,disable breake transmission, enable access to Divisor Latches
	U0LCR |= (1 << word_len_0)|(1 << word_len_1)|(1 << DLAB);
	//f = 18 mGz,Baud = 115200.
	U0FDR = 0xC1;
	U0DLL = 0x09;
	U0DLM = 0x00;
     936:	4a11      	ldr	r2, [pc, #68]	; (97c <uart0_init+0x6c>)
     938:	6011      	str	r1, [r2, #0]
	U0LCR &= ~(1 << DLAB);//DLAB = 0
     93a:	6819      	ldr	r1, [r3, #0]
     93c:	4381      	bics	r1, r0
     93e:	6019      	str	r1, [r3, #0]

	//UART FIFO Нужно ли оно?
	U0FCR |= ((1 << FIFO_Enable )|(1 << RX_FIFO_Reset)|(1 << TX_FIFO_Reset));//Enable and reset TX and RX FIFO
     940:	490f      	ldr	r1, [pc, #60]	; (980 <uart0_init+0x70>)
     942:	680b      	ldr	r3, [r1, #0]
     944:	3879      	subs	r0, #121	; 0x79
     946:	4303      	orrs	r3, r0
     948:	600b      	str	r3, [r1, #0]

	//Настройка ножек мк: P0(2) - TxD,P0(3) - RxD.
	//P0.02,P0.03 - pull-up mode
	PINSEL0 |= (1 << 4)|(1 << 6);
     94a:	490e      	ldr	r1, [pc, #56]	; (984 <uart0_init+0x74>)
     94c:	680b      	ldr	r3, [r1, #0]
     94e:	3049      	adds	r0, #73	; 0x49
     950:	4303      	orrs	r3, r0
     952:	600b      	str	r3, [r1, #0]

	//Interrupts
	/* InstallIRQ( UART0_INT, (void *)UART0_INT_Handler, 0x0E); */
	/* U0IER |= ((1 << RBR_Enable )|(1 << THRE_Enable)|(1 << RLS_Enable));[> Enable UART0 interrupt <] */
	U0IER |= (1 << RBR_Enable );/* Enable UART0 interrupt */
     954:	2101      	movs	r1, #1
     956:	6813      	ldr	r3, [r2, #0]
     958:	430b      	orrs	r3, r1
     95a:	6013      	str	r3, [r2, #0]
	/* [> Enable Tx/Rx/Error interrupts <] */
	RegisterIrq(UART0_IRQn, (void *)Isr_UART0, PRI_LOWEST);
     95c:	384a      	subs	r0, #74	; 0x4a
     95e:	490a      	ldr	r1, [pc, #40]	; (988 <uart0_init+0x78>)
     960:	220f      	movs	r2, #15
     962:	f7ff ff4b 	bl	7fc <RegisterIrq>

}
     966:	bc08      	pop	{r3}
     968:	bc01      	pop	{r0}
     96a:	4700      	bx	r0
     96c:	e01fc0c4 	.word	0xe01fc0c4
     970:	e000c00c 	.word	0xe000c00c
     974:	e000c028 	.word	0xe000c028
     978:	e000c000 	.word	0xe000c000
     97c:	e000c004 	.word	0xe000c004
     980:	e000c008 	.word	0xe000c008
     984:	e002c000 	.word	0xe002c000
     988:	0000080d 	.word	0x0000080d

0000098c <hex_to_int>:


uint16_t hex_to_int(uint8_t c){
	uint16_t first = c / 16 - 3;
	uint16_t second = c % 16;
	uint16_t result = first*10 + second;
     98c:	220a      	movs	r2, #10
extern uint8_t native;
const char help_msg[] = "Plazma probe controller\n Usage:\n    start - start measurements\n    stop - finish measurements\n    set <voltage> - probe voltage setup\n    native - non-formated output\n    ascii - output in ascii presentation\n";


uint16_t hex_to_int(uint8_t c){
	uint16_t first = c / 16 - 3;
     98e:	0903      	lsrs	r3, r0, #4
     990:	3b03      	subs	r3, #3
	uint16_t second = c % 16;
	uint16_t result = first*10 + second;
     992:	4353      	muls	r3, r2
const char help_msg[] = "Plazma probe controller\n Usage:\n    start - start measurements\n    stop - finish measurements\n    set <voltage> - probe voltage setup\n    native - non-formated output\n    ascii - output in ascii presentation\n";


uint16_t hex_to_int(uint8_t c){
	uint16_t first = c / 16 - 3;
	uint16_t second = c % 16;
     994:	3205      	adds	r2, #5
     996:	4010      	ands	r0, r2
	uint16_t result = first*10 + second;
     998:	18c0      	adds	r0, r0, r3
     99a:	0400      	lsls	r0, r0, #16
     99c:	0c00      	lsrs	r0, r0, #16
	if(result > 9) result--;
     99e:	2809      	cmp	r0, #9
     9a0:	d902      	bls.n	9a8 <hex_to_int+0x1c>
     9a2:	3801      	subs	r0, #1
     9a4:	0400      	lsls	r0, r0, #16
     9a6:	0c00      	lsrs	r0, r0, #16
	return result;
}
     9a8:	4770      	bx	lr

000009aa <hex_to_ascii>:

uint16_t hex_to_ascii(uint16_t c){
     9aa:	b538      	push	{r3, r4, r5, lr}
     9ac:	1c05      	adds	r5, r0, #0
	uint16_t high = hex_to_int(c >> 8) * 16;
     9ae:	0a00      	lsrs	r0, r0, #8
     9b0:	f7ff ffec 	bl	98c <hex_to_int>
     9b4:	1c04      	adds	r4, r0, #0
	uint16_t low = hex_to_int(c & 0xFF);
     9b6:	0628      	lsls	r0, r5, #24
     9b8:	0e00      	lsrs	r0, r0, #24
     9ba:	f7ff ffe7 	bl	98c <hex_to_int>
	if(result > 9) result--;
	return result;
}

uint16_t hex_to_ascii(uint16_t c){
	uint16_t high = hex_to_int(c >> 8) * 16;
     9be:	0124      	lsls	r4, r4, #4
	uint16_t low = hex_to_int(c & 0xFF);
	return high+low;
     9c0:	1900      	adds	r0, r0, r4
     9c2:	0400      	lsls	r0, r0, #16
     9c4:	0c00      	lsrs	r0, r0, #16
}
     9c6:	bc38      	pop	{r3, r4, r5}
     9c8:	bc02      	pop	{r1}
     9ca:	4708      	bx	r1

000009cc <UART0_send_byte>:
#endif
}
void UART0_send_byte(uint8_t byte)
{

	U0IER &= ~(1 << RBR_Enable );     // Disable RBR
     9cc:	2101      	movs	r1, #1
     9ce:	4b07      	ldr	r3, [pc, #28]	; (9ec <UART0_send_byte+0x20>)
     9d0:	681a      	ldr	r2, [r3, #0]
     9d2:	438a      	bics	r2, r1
     9d4:	601a      	str	r2, [r3, #0]
	while ((U0LSR & (1 << 5)) == 0);//ждём пока освободиться регистр THR
     9d6:	4a06      	ldr	r2, [pc, #24]	; (9f0 <UART0_send_byte+0x24>)
     9d8:	6812      	ldr	r2, [r2, #0]
     9da:	0692      	lsls	r2, r2, #26
     9dc:	d5fb      	bpl.n	9d6 <UART0_send_byte+0xa>
	U0THR = byte;
	U0IER |= (1 << RBR_Enable );      // Re-enable RBR 
     9de:	2101      	movs	r1, #1
void UART0_send_byte(uint8_t byte)
{

	U0IER &= ~(1 << RBR_Enable );     // Disable RBR
	while ((U0LSR & (1 << 5)) == 0);//ждём пока освободиться регистр THR
	U0THR = byte;
     9e0:	4a04      	ldr	r2, [pc, #16]	; (9f4 <UART0_send_byte+0x28>)
     9e2:	6010      	str	r0, [r2, #0]
	U0IER |= (1 << RBR_Enable );      // Re-enable RBR 
     9e4:	681a      	ldr	r2, [r3, #0]
     9e6:	430a      	orrs	r2, r1
     9e8:	601a      	str	r2, [r3, #0]
}
     9ea:	4770      	bx	lr
     9ec:	e000c004 	.word	0xe000c004
     9f0:	e000c014 	.word	0xe000c014
     9f4:	e000c000 	.word	0xe000c000

000009f8 <UART0_send>:
void UART0_send(unsigned char *BufferPtr, unsigned short Length )
{
     9f8:	b510      	push	{r4, lr}
	U0IER &= ~(1 << RBR_Enable );     // Disable RBR
     9fa:	2401      	movs	r4, #1
     9fc:	4b0c      	ldr	r3, [pc, #48]	; (a30 <Stack_Size+0x20>)
     9fe:	681a      	ldr	r2, [r3, #0]
     a00:	43a2      	bics	r2, r4
     a02:	1c1c      	adds	r4, r3, #0
     a04:	601a      	str	r2, [r3, #0]

	while ( Length != 0 )
     a06:	2900      	cmp	r1, #0
     a08:	d00b      	beq.n	a22 <Stack_Size+0x12>
	{
		// THRE status, contain valid data 
		while ((U0LSR & (1 << 5)) == 0);//ждём пока освободиться регистр THR
     a0a:	4b0a      	ldr	r3, [pc, #40]	; (a34 <Stack_Size+0x24>)
     a0c:	681b      	ldr	r3, [r3, #0]
     a0e:	069b      	lsls	r3, r3, #26
     a10:	d5fb      	bpl.n	a0a <UART0_send+0x12>
		U0THR = *BufferPtr;// в сдвиговый регистр положить данные
     a12:	7802      	ldrb	r2, [r0, #0]
     a14:	4b08      	ldr	r3, [pc, #32]	; (a38 <Stack_Size+0x28>)
		BufferPtr++;
		Length--;
     a16:	3901      	subs	r1, #1
     a18:	0409      	lsls	r1, r1, #16

	while ( Length != 0 )
	{
		// THRE status, contain valid data 
		while ((U0LSR & (1 << 5)) == 0);//ждём пока освободиться регистр THR
		U0THR = *BufferPtr;// в сдвиговый регистр положить данные
     a1a:	601a      	str	r2, [r3, #0]
		BufferPtr++;
     a1c:	3001      	adds	r0, #1
		Length--;
     a1e:	0c09      	lsrs	r1, r1, #16
     a20:	e7f1      	b.n	a06 <UART0_send+0xe>
	}
	U0IER |= (1 << RBR_Enable );      // Re-enable RBR 
     a22:	2201      	movs	r2, #1
     a24:	6823      	ldr	r3, [r4, #0]
     a26:	4313      	orrs	r3, r2
     a28:	6023      	str	r3, [r4, #0]

	return;
}
     a2a:	bc10      	pop	{r4}
     a2c:	bc01      	pop	{r0}
     a2e:	4700      	bx	r0
     a30:	e000c004 	.word	0xe000c004
     a34:	e000c014 	.word	0xe000c014
     a38:	e000c000 	.word	0xe000c000

00000a3c <atof>:



double atof(const char *s)
{
     a3c:	b5f7      	push	{r0, r1, r2, r4, r5, r6, r7, lr}
	// This function stolen from either Rolf Neugebauer or Andrew Tolmach. 
	// Probably Rolf.
	double a = 0.0;
	int e = 0;
	int c;
	uint8_t neg_flag = 0;
     a3e:	2200      	movs	r2, #0
	if ((c = *s) == '-')
     a40:	7803      	ldrb	r3, [r0, #0]
}



double atof(const char *s)
{
     a42:	1c05      	adds	r5, r0, #0
	// This function stolen from either Rolf Neugebauer or Andrew Tolmach. 
	// Probably Rolf.
	double a = 0.0;
	int e = 0;
	int c;
	uint8_t neg_flag = 0;
     a44:	9200      	str	r2, [sp, #0]
	if ((c = *s) == '-')
     a46:	2b2d      	cmp	r3, #45	; 0x2d
     a48:	d102      	bne.n	a50 <atof+0x14>
	{
		neg_flag = 1;
     a4a:	3b2c      	subs	r3, #44	; 0x2c
     a4c:	9300      	str	r3, [sp, #0]
		*s++;
     a4e:	3501      	adds	r5, #1
	// This function stolen from either Rolf Neugebauer or Andrew Tolmach. 
	// Probably Rolf.
	double a = 0.0;
	int e = 0;
	int c;
	uint8_t neg_flag = 0;
     a50:	2000      	movs	r0, #0
     a52:	1c01      	adds	r1, r0, #0
	if ((c = *s) == '-')
	{
		neg_flag = 1;
		*s++;
	}
	while ((c = *s++) != '\0' && isdigit(c)) {
     a54:	3501      	adds	r5, #1
     a56:	1e6b      	subs	r3, r5, #1
     a58:	781e      	ldrb	r6, [r3, #0]
     a5a:	2e00      	cmp	r6, #0
     a5c:	d051      	beq.n	b02 <atof+0xc6>
     a5e:	1c34      	adds	r4, r6, #0
     a60:	3c30      	subs	r4, #48	; 0x30
     a62:	2c09      	cmp	r4, #9
     a64:	d80f      	bhi.n	a86 <atof+0x4a>
		a = a*10.0 + (c - '0');
     a66:	2200      	movs	r2, #0
     a68:	4b35      	ldr	r3, [pc, #212]	; (b40 <atof+0x104>)
     a6a:	f001 fef3 	bl	2854 <____aeabi_dmul_from_thumb>
     a6e:	1c06      	adds	r6, r0, #0
     a70:	1c20      	adds	r0, r4, #0
     a72:	1c0f      	adds	r7, r1, #0
     a74:	f001 ff0a 	bl	288c <____aeabi_i2d_from_thumb>
     a78:	1c02      	adds	r2, r0, #0
     a7a:	1c0b      	adds	r3, r1, #0
     a7c:	1c30      	adds	r0, r6, #0
     a7e:	1c39      	adds	r1, r7, #0
     a80:	f001 feda 	bl	2838 <____aeabi_dadd_from_thumb>
     a84:	e7e6      	b.n	a54 <atof+0x18>
     a86:	1c33      	adds	r3, r6, #0
	if ((c = *s) == '-')
	{
		neg_flag = 1;
		*s++;
	}
	while ((c = *s++) != '\0' && isdigit(c)) {
     a88:	1c2c      	adds	r4, r5, #0
		a = a*10.0 + (c - '0');
	}
	if (c == '.') {
     a8a:	2e2e      	cmp	r6, #46	; 0x2e
     a8c:	d119      	bne.n	ac2 <atof+0x86>
     a8e:	1b2e      	subs	r6, r5, r4
		while ((c = *s++) != '\0' && isdigit(c)) {
     a90:	3401      	adds	r4, #1
     a92:	1e63      	subs	r3, r4, #1
     a94:	781a      	ldrb	r2, [r3, #0]
     a96:	1e13      	subs	r3, r2, #0
     a98:	d033      	beq.n	b02 <atof+0xc6>
     a9a:	3a30      	subs	r2, #48	; 0x30
     a9c:	9201      	str	r2, [sp, #4]
     a9e:	2a09      	cmp	r2, #9
     aa0:	d810      	bhi.n	ac4 <atof+0x88>
			a = a*10.0 + (c - '0');
     aa2:	2200      	movs	r2, #0
     aa4:	4b26      	ldr	r3, [pc, #152]	; (b40 <atof+0x104>)
     aa6:	f001 fed5 	bl	2854 <____aeabi_dmul_from_thumb>
     aaa:	1c06      	adds	r6, r0, #0
     aac:	9801      	ldr	r0, [sp, #4]
     aae:	1c0f      	adds	r7, r1, #0
     ab0:	f001 feec 	bl	288c <____aeabi_i2d_from_thumb>
     ab4:	1c02      	adds	r2, r0, #0
     ab6:	1c0b      	adds	r3, r1, #0
     ab8:	1c30      	adds	r0, r6, #0
     aba:	1c39      	adds	r1, r7, #0
     abc:	f001 febc 	bl	2838 <____aeabi_dadd_from_thumb>
     ac0:	e7e5      	b.n	a8e <atof+0x52>
double atof(const char *s)
{
	// This function stolen from either Rolf Neugebauer or Andrew Tolmach. 
	// Probably Rolf.
	double a = 0.0;
	int e = 0;
     ac2:	2600      	movs	r6, #0
		while ((c = *s++) != '\0' && isdigit(c)) {
			a = a*10.0 + (c - '0');
			e = e-1;
		}
	}
	if (c == 'e' || c == 'E') {
     ac4:	2b65      	cmp	r3, #101	; 0x65
     ac6:	d001      	beq.n	acc <atof+0x90>
     ac8:	2b45      	cmp	r3, #69	; 0x45
     aca:	d11a      	bne.n	b02 <atof+0xc6>
		int sign = 1;
		int i = 0;
		c = *s++;
     acc:	7823      	ldrb	r3, [r4, #0]
		if (c == '+')
     ace:	2b2b      	cmp	r3, #43	; 0x2b
     ad0:	d102      	bne.n	ad8 <atof+0x9c>
			c = *s++;
     ad2:	1ca2      	adds	r2, r4, #2
     ad4:	7863      	ldrb	r3, [r4, #1]
     ad6:	e002      	b.n	ade <atof+0xa2>
		else if (c == '-') {
     ad8:	2b2d      	cmp	r3, #45	; 0x2d
     ada:	d002      	beq.n	ae2 <atof+0xa6>
		}
	}
	if (c == 'e' || c == 'E') {
		int sign = 1;
		int i = 0;
		c = *s++;
     adc:	1c62      	adds	r2, r4, #1
			a = a*10.0 + (c - '0');
			e = e-1;
		}
	}
	if (c == 'e' || c == 'E') {
		int sign = 1;
     ade:	2501      	movs	r5, #1
     ae0:	e003      	b.n	aea <atof+0xae>
		c = *s++;
		if (c == '+')
			c = *s++;
		else if (c == '-') {
			c = *s++;
			sign = -1;
     ae2:	2501      	movs	r5, #1
		int i = 0;
		c = *s++;
		if (c == '+')
			c = *s++;
		else if (c == '-') {
			c = *s++;
     ae4:	7863      	ldrb	r3, [r4, #1]
     ae6:	1ca2      	adds	r2, r4, #2
			sign = -1;
     ae8:	426d      	negs	r5, r5
			a = a*10.0 + (c - '0');
			e = e-1;
		}
	}
	if (c == 'e' || c == 'E') {
		int sign = 1;
     aea:	2400      	movs	r4, #0
			c = *s++;
		else if (c == '-') {
			c = *s++;
			sign = -1;
		}
		while (isdigit(c)) {
     aec:	3b30      	subs	r3, #48	; 0x30
     aee:	2b09      	cmp	r3, #9
     af0:	d805      	bhi.n	afe <atof+0xc2>
			i = i*10 + (c - '0');
     af2:	270a      	movs	r7, #10
     af4:	437c      	muls	r4, r7
     af6:	18e4      	adds	r4, r4, r3
			c = *s++;
     af8:	7813      	ldrb	r3, [r2, #0]
     afa:	3201      	adds	r2, #1
     afc:	e7f6      	b.n	aec <atof+0xb0>
		}
		e += i*sign;
     afe:	436c      	muls	r4, r5
     b00:	1936      	adds	r6, r6, r4
double atof(const char *s)
{
	// This function stolen from either Rolf Neugebauer or Andrew Tolmach. 
	// Probably Rolf.
	double a = 0.0;
	int e = 0;
     b02:	1c34      	adds	r4, r6, #0
			i = i*10 + (c - '0');
			c = *s++;
		}
		e += i*sign;
	}
	while (e > 0) {
     b04:	2c00      	cmp	r4, #0
     b06:	dd05      	ble.n	b14 <atof+0xd8>
		a *= 10.0;
     b08:	2200      	movs	r2, #0
     b0a:	4b0d      	ldr	r3, [pc, #52]	; (b40 <atof+0x104>)
     b0c:	f001 fea2 	bl	2854 <____aeabi_dmul_from_thumb>
		e--;
     b10:	3c01      	subs	r4, #1
     b12:	e7f7      	b.n	b04 <atof+0xc8>
     b14:	43f3      	mvns	r3, r6
     b16:	17db      	asrs	r3, r3, #31
     b18:	439e      	bics	r6, r3
	}
	while (e < 0) {
     b1a:	2e00      	cmp	r6, #0
     b1c:	d005      	beq.n	b2a <atof+0xee>
		a *= 0.1;
     b1e:	4a09      	ldr	r2, [pc, #36]	; (b44 <atof+0x108>)
     b20:	4b09      	ldr	r3, [pc, #36]	; (b48 <atof+0x10c>)
     b22:	f001 fe97 	bl	2854 <____aeabi_dmul_from_thumb>
		e++;
     b26:	3601      	adds	r6, #1
     b28:	e7f7      	b.n	b1a <atof+0xde>
	}
	if (neg_flag == 1)
     b2a:	9b00      	ldr	r3, [sp, #0]
     b2c:	2b01      	cmp	r3, #1
     b2e:	d102      	bne.n	b36 <atof+0xfa>
		a = a*(-1);
     b30:	2380      	movs	r3, #128	; 0x80
     b32:	061b      	lsls	r3, r3, #24
     b34:	18c9      	adds	r1, r1, r3
	return a;
}
     b36:	b003      	add	sp, #12
     b38:	bcf0      	pop	{r4, r5, r6, r7}
     b3a:	bc04      	pop	{r2}
     b3c:	4710      	bx	r2
     b3e:	46c0      	nop			; (mov r8, r8)
     b40:	40240000 	.word	0x40240000
     b44:	9999999a 	.word	0x9999999a
     b48:	3fb99999 	.word	0x3fb99999

00000b4c <process_command>:
	uint16_t high = hex_to_int(c >> 8) * 16;
	uint16_t low = hex_to_int(c & 0xFF);
	return high+low;
}
void process_command(char *cmd)
{
     b4c:	b538      	push	{r3, r4, r5, lr}
	uint16_t num;
	uint8_t lenth;
	double input;
#ifdef GUI
#else
	if(strncmp(cmd, "start", 5) == 0)
     b4e:	4941      	ldr	r1, [pc, #260]	; (c54 <process_command+0x108>)
     b50:	2205      	movs	r2, #5
	uint16_t high = hex_to_int(c >> 8) * 16;
	uint16_t low = hex_to_int(c & 0xFF);
	return high+low;
}
void process_command(char *cmd)
{
     b52:	1c05      	adds	r5, r0, #0
	uint16_t num;
	uint8_t lenth;
	double input;
#ifdef GUI
#else
	if(strncmp(cmd, "start", 5) == 0)
     b54:	f000 fca0 	bl	1498 <strncmp>
     b58:	2800      	cmp	r0, #0
     b5a:	d10c      	bne.n	b76 <process_command+0x2a>
	{
		UART0_send("\nStarted\n", 9);
     b5c:	483e      	ldr	r0, [pc, #248]	; (c58 <process_command+0x10c>)
     b5e:	2109      	movs	r1, #9
     b60:	f7ff ff4a 	bl	9f8 <UART0_send>
		gpio_set(OP_AMP_PORT, OP_AMP_PIN);
     b64:	210d      	movs	r1, #13
     b66:	2002      	movs	r0, #2
     b68:	f7ff fd9c 	bl	6a4 <gpio_set>
		led_set(LED2);
     b6c:	2001      	movs	r0, #1
     b6e:	f7ff fd85 	bl	67c <led_set>
		timer0_start();
     b72:	f000 fa6f 	bl	1054 <timer0_start>
	}    

	/* Turn off amplifier */
	if(strncmp(cmd, "stop", 4) == 0)
     b76:	1c28      	adds	r0, r5, #0
     b78:	4938      	ldr	r1, [pc, #224]	; (c5c <process_command+0x110>)
     b7a:	2204      	movs	r2, #4
     b7c:	f000 fc8c 	bl	1498 <strncmp>
     b80:	2800      	cmp	r0, #0
     b82:	d11a      	bne.n	bba <process_command+0x6e>
	{
		UART0_send("\nStopped\n", 9);
		gpio_clear(OP_AMP_PORT, OP_AMP_PIN);
		led_clear(LED2);
		timer0_stop();
		FIO1CLR |= 1 << DAC;
     b84:	2480      	movs	r4, #128	; 0x80
	}    

	/* Turn off amplifier */
	if(strncmp(cmd, "stop", 4) == 0)
	{
		UART0_send("\nStopped\n", 9);
     b86:	4836      	ldr	r0, [pc, #216]	; (c60 <process_command+0x114>)
     b88:	2109      	movs	r1, #9
     b8a:	f7ff ff35 	bl	9f8 <UART0_send>
		gpio_clear(OP_AMP_PORT, OP_AMP_PIN);
     b8e:	210d      	movs	r1, #13
     b90:	2002      	movs	r0, #2
     b92:	f7ff fda9 	bl	6e8 <gpio_clear>
		led_clear(LED2);
     b96:	2001      	movs	r0, #1
     b98:	f7ff fd7a 	bl	690 <led_clear>
		timer0_stop();
     b9c:	f000 fa6a 	bl	1074 <timer0_stop>
		FIO1CLR |= 1 << DAC;
     ba0:	4a30      	ldr	r2, [pc, #192]	; (c64 <process_command+0x118>)
     ba2:	6813      	ldr	r3, [r2, #0]
     ba4:	05a4      	lsls	r4, r4, #22
     ba6:	4323      	orrs	r3, r4
     ba8:	6013      	str	r3, [r2, #0]
		SPI0_send_2_byte((0x1000 | 578), DAC);
     baa:	482f      	ldr	r0, [pc, #188]	; (c68 <process_command+0x11c>)
     bac:	211d      	movs	r1, #29
     bae:	f000 f905 	bl	dbc <SPI0_send_2_byte>
		FIO1SET |= 1 << DAC;
     bb2:	4a2e      	ldr	r2, [pc, #184]	; (c6c <process_command+0x120>)
     bb4:	6813      	ldr	r3, [r2, #0]
     bb6:	4323      	orrs	r3, r4
     bb8:	6013      	str	r3, [r2, #0]
	}
	/* Voltage setup  */
	if(strncmp(cmd, "set", 3) == 0)
     bba:	1c28      	adds	r0, r5, #0
     bbc:	492c      	ldr	r1, [pc, #176]	; (c70 <process_command+0x124>)
     bbe:	2203      	movs	r2, #3
     bc0:	f000 fc6a 	bl	1498 <strncmp>
     bc4:	2800      	cmp	r0, #0
     bc6:	d123      	bne.n	c10 <process_command+0xc4>
	{

		lenth = strlen(cmd+4)-1;
		if (native == 1)
     bc8:	4b2a      	ldr	r3, [pc, #168]	; (c74 <process_command+0x128>)
     bca:	781b      	ldrb	r3, [r3, #0]
     bcc:	1d28      	adds	r0, r5, #4
     bce:	2b01      	cmp	r3, #1
     bd0:	d102      	bne.n	bd8 <process_command+0x8c>
		{
		num = atoi(cmd + 4);
     bd2:	f000 fb87 	bl	12e4 <atoi>
     bd6:	e00b      	b.n	bf0 <process_command+0xa4>
		}else{
		input = atof(cmd + 4);
     bd8:	f7ff ff30 	bl	a3c <atof>
		input = input/0.01445 +578;	
     bdc:	4a26      	ldr	r2, [pc, #152]	; (c78 <process_command+0x12c>)
     bde:	4b27      	ldr	r3, [pc, #156]	; (c7c <process_command+0x130>)
     be0:	f001 fe2e 	bl	2840 <____aeabi_ddiv_from_thumb>
     be4:	2200      	movs	r2, #0
     be6:	4b26      	ldr	r3, [pc, #152]	; (c80 <process_command+0x134>)
     be8:	f001 fe26 	bl	2838 <____aeabi_dadd_from_thumb>
		num = (int)input;
     bec:	f001 fe3a 	bl	2864 <____aeabi_d2iz_from_thumb>
     bf0:	0404      	lsls	r4, r0, #16
     bf2:	0c24      	lsrs	r4, r4, #16
		}
		UART0_send("\nOK\n", 4);
     bf4:	2104      	movs	r1, #4
     bf6:	4823      	ldr	r0, [pc, #140]	; (c84 <process_command+0x138>)
     bf8:	f7ff fefe 	bl	9f8 <UART0_send>
		UART0_send_byte(num >> 8);
     bfc:	0a20      	lsrs	r0, r4, #8
     bfe:	f7ff fee5 	bl	9cc <UART0_send_byte>
		UART0_send_byte(num);
     c02:	0620      	lsls	r0, r4, #24
     c04:	0e00      	lsrs	r0, r0, #24
     c06:	f7ff fee1 	bl	9cc <UART0_send_byte>
		dac_set_voltage(num);
     c0a:	1c20      	adds	r0, r4, #0
     c0c:	f000 f980 	bl	f10 <dac_set_voltage>
	}

	/* Manual  */
	if(strncmp(cmd, "help", 4) == 0)
     c10:	1c28      	adds	r0, r5, #0
     c12:	491d      	ldr	r1, [pc, #116]	; (c88 <process_command+0x13c>)
     c14:	2204      	movs	r2, #4
     c16:	f000 fc3f 	bl	1498 <strncmp>
     c1a:	2800      	cmp	r0, #0
     c1c:	d103      	bne.n	c26 <process_command+0xda>
	{
		UART0_send(help_msg, sizeof(help_msg)-1);
     c1e:	481b      	ldr	r0, [pc, #108]	; (c8c <process_command+0x140>)
     c20:	21d0      	movs	r1, #208	; 0xd0
     c22:	f7ff fee9 	bl	9f8 <UART0_send>
	}
	/* Switching between output value presentation */
	if (strncmp(cmd, "native", 6) == 0)
     c26:	1c28      	adds	r0, r5, #0
     c28:	4919      	ldr	r1, [pc, #100]	; (c90 <process_command+0x144>)
     c2a:	2206      	movs	r2, #6
     c2c:	f000 fc34 	bl	1498 <strncmp>
     c30:	2800      	cmp	r0, #0
     c32:	d102      	bne.n	c3a <process_command+0xee>
	{
		native = 1;
     c34:	2201      	movs	r2, #1
     c36:	4b0f      	ldr	r3, [pc, #60]	; (c74 <process_command+0x128>)
     c38:	701a      	strb	r2, [r3, #0]
	}
	if (strncmp(cmd, "ascii", 5) == 0)
     c3a:	1c28      	adds	r0, r5, #0
     c3c:	4915      	ldr	r1, [pc, #84]	; (c94 <process_command+0x148>)
     c3e:	2205      	movs	r2, #5
     c40:	f000 fc2a 	bl	1498 <strncmp>
     c44:	2800      	cmp	r0, #0
     c46:	d101      	bne.n	c4c <process_command+0x100>
	{
		native = 0;
     c48:	4b0a      	ldr	r3, [pc, #40]	; (c74 <process_command+0x128>)
     c4a:	7018      	strb	r0, [r3, #0]
	}
#endif
}
     c4c:	bc38      	pop	{r3, r4, r5}
     c4e:	bc01      	pop	{r0}
     c50:	4700      	bx	r0
     c52:	46c0      	nop			; (mov r8, r8)
     c54:	00002983 	.word	0x00002983
     c58:	00002989 	.word	0x00002989
     c5c:	00002993 	.word	0x00002993
     c60:	00002998 	.word	0x00002998
     c64:	3fffc03c 	.word	0x3fffc03c
     c68:	00001242 	.word	0x00001242
     c6c:	3fffc038 	.word	0x3fffc038
     c70:	000029a2 	.word	0x000029a2
     c74:	40000434 	.word	0x40000434
     c78:	2b6ae7d5 	.word	0x2b6ae7d5
     c7c:	3f8d97f6 	.word	0x3f8d97f6
     c80:	40821000 	.word	0x40821000
     c84:	000029a6 	.word	0x000029a6
     c88:	000029ab 	.word	0x000029ab
     c8c:	000028a0 	.word	0x000028a0
     c90:	000029b0 	.word	0x000029b0
     c94:	000029b7 	.word	0x000029b7

00000c98 <SPI_ADC_data_transfers_16bit>:
	}
	return dat;
}

uint16_t SPI_ADC_data_transfers_16bit (uint16_t data)
{
     c98:	b530      	push	{r4, r5, lr}
     c9a:	210f      	movs	r1, #15
     c9c:	1c04      	adds	r4, r0, #0
	uint16_t dat = 0;
     c9e:	2000      	movs	r0, #0
	//Write
	mask = 0x8000;
	for(i = 16;  i > 0 ; i--)
	{
		//SCLK
		FIO1PIN &= ~(1 << ADC_SCLK);
     ca0:	4b12      	ldr	r3, [pc, #72]	; (cec <SPI_ADC_data_transfers_16bit+0x54>)
     ca2:	4a13      	ldr	r2, [pc, #76]	; (cf0 <SPI_ADC_data_transfers_16bit+0x58>)
     ca4:	681d      	ldr	r5, [r3, #0]
     ca6:	402a      	ands	r2, r5
     ca8:	601a      	str	r2, [r3, #0]
		/* if(data & mask) */
		if(data & (1 << (i - 1)))
     caa:	1c22      	adds	r2, r4, #0
     cac:	410a      	asrs	r2, r1
     cae:	07d2      	lsls	r2, r2, #31
     cb0:	d504      	bpl.n	cbc <SPI_ADC_data_transfers_16bit+0x24>
			FIO1PIN |= 1 << ADC_DIN;
     cb2:	2580      	movs	r5, #128	; 0x80
     cb4:	681a      	ldr	r2, [r3, #0]
     cb6:	046d      	lsls	r5, r5, #17
     cb8:	432a      	orrs	r2, r5
     cba:	e002      	b.n	cc2 <SPI_ADC_data_transfers_16bit+0x2a>
		else
			FIO1PIN &= ~(1 << ADC_DIN);
     cbc:	681d      	ldr	r5, [r3, #0]
     cbe:	4a0d      	ldr	r2, [pc, #52]	; (cf4 <SPI_ADC_data_transfers_16bit+0x5c>)
     cc0:	402a      	ands	r2, r5

		mask = mask >> 1;

		for (j = 0; j < 6; j++);
		FIO1PIN |= 1 << ADC_SCLK;
     cc2:	2580      	movs	r5, #128	; 0x80
		FIO1PIN &= ~(1 << ADC_SCLK);
		/* if(data & mask) */
		if(data & (1 << (i - 1)))
			FIO1PIN |= 1 << ADC_DIN;
		else
			FIO1PIN &= ~(1 << ADC_DIN);
     cc4:	601a      	str	r2, [r3, #0]

		mask = mask >> 1;

		for (j = 0; j < 6; j++);
		FIO1PIN |= 1 << ADC_SCLK;
     cc6:	681a      	ldr	r2, [r3, #0]
     cc8:	036d      	lsls	r5, r5, #13
     cca:	432a      	orrs	r2, r5
     ccc:	601a      	str	r2, [r3, #0]
		//read
		if(FIO1PIN & (1 << (ADC_DOUT)))
     cce:	681a      	ldr	r2, [r3, #0]
     cd0:	2301      	movs	r3, #1
			dat |= 1 << (i - 1);
     cd2:	408b      	lsls	r3, r1
		mask = mask >> 1;

		for (j = 0; j < 6; j++);
		FIO1PIN |= 1 << ADC_SCLK;
		//read
		if(FIO1PIN & (1 << (ADC_DOUT)))
     cd4:	0212      	lsls	r2, r2, #8
     cd6:	d503      	bpl.n	ce0 <SPI_ADC_data_transfers_16bit+0x48>
			dat |= 1 << (i - 1);
     cd8:	4303      	orrs	r3, r0
     cda:	0418      	lsls	r0, r3, #16
     cdc:	0c00      	lsrs	r0, r0, #16
     cde:	e000      	b.n	ce2 <SPI_ADC_data_transfers_16bit+0x4a>
		else
			dat &= ~(1 << (i - 1));
     ce0:	4398      	bics	r0, r3
	uint16_t mask;
	char i, j;

	//Write
	mask = 0x8000;
	for(i = 16;  i > 0 ; i--)
     ce2:	3901      	subs	r1, #1
     ce4:	d2dc      	bcs.n	ca0 <SPI_ADC_data_transfers_16bit+0x8>
		else
			dat &= ~(1 << (i - 1));

	}  
	return dat;
}
     ce6:	bc30      	pop	{r4, r5}
     ce8:	bc02      	pop	{r1}
     cea:	4708      	bx	r1
     cec:	3fffc034 	.word	0x3fffc034
     cf0:	ffefffff 	.word	0xffefffff
     cf4:	feffffff 	.word	0xfeffffff

00000cf8 <SPI_ADC_data_transfers_8bit>:

unsigned char SPI_ADC_data_transfers_8bit (unsigned char data)
{
     cf8:	b530      	push	{r4, r5, lr}
     cfa:	2107      	movs	r1, #7
     cfc:	1c04      	adds	r4, r0, #0
	unsigned char dat = 0;
     cfe:	2000      	movs	r0, #0
	uint16_t mask = 0x8000;
	//Write
	for(i = 8;  i > 0 ; i--)
	{
		//SCLK
		FIO1PIN &= ~(1 << ADC_SCLK);
     d00:	4b12      	ldr	r3, [pc, #72]	; (d4c <SPI_ADC_data_transfers_8bit+0x54>)
     d02:	4a13      	ldr	r2, [pc, #76]	; (d50 <SPI_ADC_data_transfers_8bit+0x58>)
     d04:	681d      	ldr	r5, [r3, #0]
     d06:	402a      	ands	r2, r5
     d08:	601a      	str	r2, [r3, #0]
		if(data & (1 << (i - 1)))
     d0a:	1c22      	adds	r2, r4, #0
     d0c:	410a      	asrs	r2, r1
     d0e:	07d2      	lsls	r2, r2, #31
     d10:	d504      	bpl.n	d1c <SPI_ADC_data_transfers_8bit+0x24>
		/* if(data & mask) */
			FIO1PIN |= 1 << ADC_DIN;
     d12:	2580      	movs	r5, #128	; 0x80
     d14:	681a      	ldr	r2, [r3, #0]
     d16:	046d      	lsls	r5, r5, #17
     d18:	432a      	orrs	r2, r5
     d1a:	e002      	b.n	d22 <SPI_ADC_data_transfers_8bit+0x2a>
		else
			FIO1PIN &= ~(1 << ADC_DIN);
     d1c:	681d      	ldr	r5, [r3, #0]
     d1e:	4a0d      	ldr	r2, [pc, #52]	; (d54 <SPI_ADC_data_transfers_8bit+0x5c>)
     d20:	402a      	ands	r2, r5

		mask = mask >> 1;

		for (j = 0; j < 6; j++);
		FIO1PIN |= 1 << ADC_SCLK;
     d22:	2580      	movs	r5, #128	; 0x80
		FIO1PIN &= ~(1 << ADC_SCLK);
		if(data & (1 << (i - 1)))
		/* if(data & mask) */
			FIO1PIN |= 1 << ADC_DIN;
		else
			FIO1PIN &= ~(1 << ADC_DIN);
     d24:	601a      	str	r2, [r3, #0]

		mask = mask >> 1;

		for (j = 0; j < 6; j++);
		FIO1PIN |= 1 << ADC_SCLK;
     d26:	681a      	ldr	r2, [r3, #0]
     d28:	036d      	lsls	r5, r5, #13
     d2a:	432a      	orrs	r2, r5
     d2c:	601a      	str	r2, [r3, #0]
		//read
		if(FIO1PIN & (1 << (ADC_DOUT)))
     d2e:	681a      	ldr	r2, [r3, #0]
     d30:	2301      	movs	r3, #1
			dat |= 1 << (i - 1);
     d32:	408b      	lsls	r3, r1
		mask = mask >> 1;

		for (j = 0; j < 6; j++);
		FIO1PIN |= 1 << ADC_SCLK;
		//read
		if(FIO1PIN & (1 << (ADC_DOUT)))
     d34:	0212      	lsls	r2, r2, #8
     d36:	d503      	bpl.n	d40 <SPI_ADC_data_transfers_8bit+0x48>
			dat |= 1 << (i - 1);
     d38:	4303      	orrs	r3, r0
     d3a:	0618      	lsls	r0, r3, #24
     d3c:	0e00      	lsrs	r0, r0, #24
     d3e:	e000      	b.n	d42 <SPI_ADC_data_transfers_8bit+0x4a>
		else
			dat &= ~(1 << (i - 1));
     d40:	4398      	bics	r0, r3
	unsigned char dat = 0;
	char i, j;

	uint16_t mask = 0x8000;
	//Write
	for(i = 8;  i > 0 ; i--)
     d42:	3901      	subs	r1, #1
     d44:	d2dc      	bcs.n	d00 <SPI_ADC_data_transfers_8bit+0x8>
		else
			dat &= ~(1 << (i - 1));

	}  
	return dat;
}
     d46:	bc30      	pop	{r4, r5}
     d48:	bc02      	pop	{r1}
     d4a:	4708      	bx	r1
     d4c:	3fffc034 	.word	0x3fffc034
     d50:	ffefffff 	.word	0xffefffff
     d54:	feffffff 	.word	0xfeffffff

00000d58 <SPI_DAC_data_transfers_16bit>:
uint16_t SPI_DAC_data_transfers_16bit (uint16_t data)
{
     d58:	b570      	push	{r4, r5, r6, lr}
	uint16_t dat = 0;
	uint16_t mask;
	char i, j;

	//Write
	mask = 0x8000;
     d5a:	2480      	movs	r4, #128	; 0x80

	}  
	return dat;
}
uint16_t SPI_DAC_data_transfers_16bit (uint16_t data)
{
     d5c:	1c05      	adds	r5, r0, #0
     d5e:	210f      	movs	r1, #15
	uint16_t dat = 0;
     d60:	2000      	movs	r0, #0
	uint16_t mask;
	char i, j;

	//Write
	mask = 0x8000;
     d62:	0224      	lsls	r4, r4, #8
	for(i = 16;  i > 0 ; i--)
	{
		FIO1PIN |= 1 << ADC_SCLK;
     d64:	2680      	movs	r6, #128	; 0x80
     d66:	4b12      	ldr	r3, [pc, #72]	; (db0 <SPI_DAC_data_transfers_16bit+0x58>)
     d68:	681a      	ldr	r2, [r3, #0]
     d6a:	0376      	lsls	r6, r6, #13
     d6c:	4332      	orrs	r2, r6
     d6e:	601a      	str	r2, [r3, #0]
		if(data & mask)
     d70:	4225      	tst	r5, r4
     d72:	d004      	beq.n	d7e <SPI_DAC_data_transfers_16bit+0x26>
			FIO1PIN |= 1 << ADC_DIN;
     d74:	2680      	movs	r6, #128	; 0x80
     d76:	681a      	ldr	r2, [r3, #0]
     d78:	0476      	lsls	r6, r6, #17
     d7a:	4332      	orrs	r2, r6
     d7c:	e002      	b.n	d84 <SPI_DAC_data_transfers_16bit+0x2c>
		else
			FIO1PIN &= ~(1 << ADC_DIN);
     d7e:	681e      	ldr	r6, [r3, #0]
     d80:	4a0c      	ldr	r2, [pc, #48]	; (db4 <SPI_DAC_data_transfers_16bit+0x5c>)
     d82:	4032      	ands	r2, r6
     d84:	601a      	str	r2, [r3, #0]

		//SCLK
		mask = mask >> 1;
		for (j = 0; j < 6; j++);
		FIO1PIN &= ~(1 << ADC_SCLK);
     d86:	4a0c      	ldr	r2, [pc, #48]	; (db8 <SPI_DAC_data_transfers_16bit+0x60>)
     d88:	681e      	ldr	r6, [r3, #0]
     d8a:	4032      	ands	r2, r6
     d8c:	601a      	str	r2, [r3, #0]

		//read
		if(FIO1PIN & (1 << (ADC_DOUT)))
     d8e:	681a      	ldr	r2, [r3, #0]
     d90:	2301      	movs	r3, #1
			FIO1PIN |= 1 << ADC_DIN;
		else
			FIO1PIN &= ~(1 << ADC_DIN);

		//SCLK
		mask = mask >> 1;
     d92:	0864      	lsrs	r4, r4, #1
		for (j = 0; j < 6; j++);
		FIO1PIN &= ~(1 << ADC_SCLK);

		//read
		if(FIO1PIN & (1 << (ADC_DOUT)))
			dat |= 1 << (i - 1);
     d94:	408b      	lsls	r3, r1
		mask = mask >> 1;
		for (j = 0; j < 6; j++);
		FIO1PIN &= ~(1 << ADC_SCLK);

		//read
		if(FIO1PIN & (1 << (ADC_DOUT)))
     d96:	0212      	lsls	r2, r2, #8
     d98:	d503      	bpl.n	da2 <SPI_DAC_data_transfers_16bit+0x4a>
			dat |= 1 << (i - 1);
     d9a:	4303      	orrs	r3, r0
     d9c:	0418      	lsls	r0, r3, #16
     d9e:	0c00      	lsrs	r0, r0, #16
     da0:	e000      	b.n	da4 <SPI_DAC_data_transfers_16bit+0x4c>
		else
			dat &= ~(1 << (i - 1));
     da2:	4398      	bics	r0, r3
	uint16_t mask;
	char i, j;

	//Write
	mask = 0x8000;
	for(i = 16;  i > 0 ; i--)
     da4:	3901      	subs	r1, #1
     da6:	d2dd      	bcs.n	d64 <SPI_DAC_data_transfers_16bit+0xc>
		else
			dat &= ~(1 << (i - 1));

	}  
	return dat;
}
     da8:	bc70      	pop	{r4, r5, r6}
     daa:	bc02      	pop	{r1}
     dac:	4708      	bx	r1
     dae:	46c0      	nop			; (mov r8, r8)
     db0:	3fffc034 	.word	0x3fffc034
     db4:	feffffff 	.word	0xfeffffff
     db8:	ffefffff 	.word	0xffefffff

00000dbc <SPI0_send_2_byte>:
	}
	return dat;
}

uint16_t SPI0_send_2_byte(uint16_t data, uint8_t slave)
{
     dbc:	b508      	push	{r3, lr}
	uint16_t dat;
	if (slave == ADC )
     dbe:	2912      	cmp	r1, #18
     dc0:	d102      	bne.n	dc8 <SPI0_send_2_byte+0xc>
	{
	dat = SPI_ADC_data_transfers_16bit(data);
     dc2:	f7ff ff69 	bl	c98 <SPI_ADC_data_transfers_16bit>
     dc6:	e003      	b.n	dd0 <SPI0_send_2_byte+0x14>
	}else if (slave == DAC)
     dc8:	291d      	cmp	r1, #29
     dca:	d102      	bne.n	dd2 <SPI0_send_2_byte+0x16>
	{
	dat = SPI_DAC_data_transfers_16bit(data);
     dcc:	f7ff ffc4 	bl	d58 <SPI_DAC_data_transfers_16bit>
     dd0:	1c03      	adds	r3, r0, #0
	}
	return dat;
}
     dd2:	1c18      	adds	r0, r3, #0
     dd4:	bc08      	pop	{r3}
     dd6:	bc02      	pop	{r1}
     dd8:	4708      	bx	r1

00000dda <SPI_DAC_data_transfers_8bit>:
	}  
	return dat;
}

unsigned char SPI_DAC_data_transfers_8bit (unsigned char data)
{
     dda:	b530      	push	{r4, r5, lr}
     ddc:	2107      	movs	r1, #7
     dde:	1c04      	adds	r4, r0, #0
	unsigned char dat = 0;
     de0:	2000      	movs	r0, #0
	char i, j;

	//Write
	for(i = 8;  i > 0 ; i--)
	{
		if(data & (1 << (i - 1)))
     de2:	1c22      	adds	r2, r4, #0
     de4:	410a      	asrs	r2, r1
     de6:	4b12      	ldr	r3, [pc, #72]	; (e30 <SPI_DAC_data_transfers_8bit+0x56>)
     de8:	07d2      	lsls	r2, r2, #31
     dea:	d504      	bpl.n	df6 <SPI_DAC_data_transfers_8bit+0x1c>
			FIO1PIN |= 1 << ADC_DIN;
     dec:	2580      	movs	r5, #128	; 0x80
     dee:	681a      	ldr	r2, [r3, #0]
     df0:	046d      	lsls	r5, r5, #17
     df2:	432a      	orrs	r2, r5
     df4:	e002      	b.n	dfc <SPI_DAC_data_transfers_8bit+0x22>
		else
			FIO1PIN &= ~(1 << ADC_DIN);
     df6:	681d      	ldr	r5, [r3, #0]
     df8:	4a0e      	ldr	r2, [pc, #56]	; (e34 <SPI_DAC_data_transfers_8bit+0x5a>)
     dfa:	402a      	ands	r2, r5

		//SCLK
		FIO1PIN |= 1 << ADC_SCLK;
     dfc:	2580      	movs	r5, #128	; 0x80
	for(i = 8;  i > 0 ; i--)
	{
		if(data & (1 << (i - 1)))
			FIO1PIN |= 1 << ADC_DIN;
		else
			FIO1PIN &= ~(1 << ADC_DIN);
     dfe:	601a      	str	r2, [r3, #0]

		//SCLK
		FIO1PIN |= 1 << ADC_SCLK;
     e00:	681a      	ldr	r2, [r3, #0]
     e02:	036d      	lsls	r5, r5, #13
     e04:	432a      	orrs	r2, r5
     e06:	601a      	str	r2, [r3, #0]
		for (j = 0; j < 6; j++);
		FIO1PIN &= ~(1 << ADC_SCLK);
     e08:	4a0b      	ldr	r2, [pc, #44]	; (e38 <SPI_DAC_data_transfers_8bit+0x5e>)
     e0a:	681d      	ldr	r5, [r3, #0]
     e0c:	402a      	ands	r2, r5
     e0e:	601a      	str	r2, [r3, #0]

		//read
		if(FIO1PIN & (1 << (ADC_DOUT)))
     e10:	681a      	ldr	r2, [r3, #0]
     e12:	2301      	movs	r3, #1
			dat |= 1 << (i - 1);
     e14:	408b      	lsls	r3, r1
		FIO1PIN |= 1 << ADC_SCLK;
		for (j = 0; j < 6; j++);
		FIO1PIN &= ~(1 << ADC_SCLK);

		//read
		if(FIO1PIN & (1 << (ADC_DOUT)))
     e16:	0212      	lsls	r2, r2, #8
     e18:	d503      	bpl.n	e22 <SPI_DAC_data_transfers_8bit+0x48>
			dat |= 1 << (i - 1);
     e1a:	4303      	orrs	r3, r0
     e1c:	0618      	lsls	r0, r3, #24
     e1e:	0e00      	lsrs	r0, r0, #24
     e20:	e000      	b.n	e24 <SPI_DAC_data_transfers_8bit+0x4a>
		else
			dat &= ~(1 << (i - 1));
     e22:	4398      	bics	r0, r3
{
	unsigned char dat = 0;
	char i, j;

	//Write
	for(i = 8;  i > 0 ; i--)
     e24:	3901      	subs	r1, #1
     e26:	d2dc      	bcs.n	de2 <SPI_DAC_data_transfers_8bit+0x8>
		else
			dat &= ~(1 << (i - 1));

	}  
	return dat;
}
     e28:	bc30      	pop	{r4, r5}
     e2a:	bc02      	pop	{r1}
     e2c:	4708      	bx	r1
     e2e:	46c0      	nop			; (mov r8, r8)
     e30:	3fffc034 	.word	0x3fffc034
     e34:	feffffff 	.word	0xfeffffff
     e38:	ffefffff 	.word	0xffefffff

00000e3c <SPI0_send_1_byte>:
#include "spi.h"
/* #define DEBUG_SPI */


uint8_t SPI0_send_1_byte(uint8_t data, uint8_t slave)
{
     e3c:	b508      	push	{r3, lr}
	uint8_t dat = 0;
	if (slave == ADC )
     e3e:	2912      	cmp	r1, #18
     e40:	d102      	bne.n	e48 <SPI0_send_1_byte+0xc>
	{
	dat = SPI_ADC_data_transfers_8bit(data);
     e42:	f7ff ff59 	bl	cf8 <SPI_ADC_data_transfers_8bit>
     e46:	e004      	b.n	e52 <SPI0_send_1_byte+0x16>
/* #define DEBUG_SPI */


uint8_t SPI0_send_1_byte(uint8_t data, uint8_t slave)
{
	uint8_t dat = 0;
     e48:	2300      	movs	r3, #0
	if (slave == ADC )
	{
	dat = SPI_ADC_data_transfers_8bit(data);
	}else if (slave == DAC)
     e4a:	291d      	cmp	r1, #29
     e4c:	d102      	bne.n	e54 <SPI0_send_1_byte+0x18>
	{
	dat = SPI_DAC_data_transfers_8bit(data);
     e4e:	f7ff ffc4 	bl	dda <SPI_DAC_data_transfers_8bit>
     e52:	1c03      	adds	r3, r0, #0
	}
	return dat;
}
     e54:	1c18      	adds	r0, r3, #0
     e56:	bc08      	pop	{r3}
     e58:	bc02      	pop	{r1}
     e5a:	4708      	bx	r1

00000e5c <Delay>:
{
	int i, j;
	for(j = 0; j < value; j++)
		for(i = 0; i < 10; i++)
			i = i;
}
     e5c:	4770      	bx	lr

00000e5e <adc_init>:
void adc_init(void)
{
	uint16_t dat = 0;
	/* ADC needs hight level at sclk in idle */
	FIO1PIN |= (1 << ADC_SCLK);
     e5e:	2180      	movs	r1, #128	; 0x80
	for(j = 0; j < value; j++)
		for(i = 0; i < 10; i++)
			i = i;
}
void adc_init(void)
{
     e60:	b570      	push	{r4, r5, r6, lr}
	uint16_t dat = 0;
	/* ADC needs hight level at sclk in idle */
	FIO1PIN |= (1 << ADC_SCLK);
	
	/* Reset ADC */
	FIO1CLR |= 1 << ADC;
     e62:	2680      	movs	r6, #128	; 0x80
}
void adc_init(void)
{
	uint16_t dat = 0;
	/* ADC needs hight level at sclk in idle */
	FIO1PIN |= (1 << ADC_SCLK);
     e64:	4a25      	ldr	r2, [pc, #148]	; (efc <adc_init+0x9e>)
     e66:	6813      	ldr	r3, [r2, #0]
     e68:	0349      	lsls	r1, r1, #13
     e6a:	430b      	orrs	r3, r1
     e6c:	6013      	str	r3, [r2, #0]
	
	/* Reset ADC */
	FIO1CLR |= 1 << ADC;
     e6e:	4d24      	ldr	r5, [pc, #144]	; (f00 <VIC_VectAddr>)
     e70:	682b      	ldr	r3, [r5, #0]
     e72:	02f6      	lsls	r6, r6, #11
     e74:	4333      	orrs	r3, r6
     e76:	602b      	str	r3, [r5, #0]
	SPI0_send_1_byte(0xFF, ADC);
     e78:	2112      	movs	r1, #18
     e7a:	20ff      	movs	r0, #255	; 0xff
     e7c:	f7ff ffde 	bl	e3c <SPI0_send_1_byte>
	SPI0_send_1_byte(0xFF, ADC);
     e80:	2112      	movs	r1, #18
     e82:	20ff      	movs	r0, #255	; 0xff
	SPI0_send_1_byte(0xFF, ADC);
	SPI0_send_1_byte(0xFF, ADC);
	FIO1SET |= 1 << ADC;
     e84:	4c1f      	ldr	r4, [pc, #124]	; (f04 <VIC_VectAddr+0x4>)
	FIO1PIN |= (1 << ADC_SCLK);
	
	/* Reset ADC */
	FIO1CLR |= 1 << ADC;
	SPI0_send_1_byte(0xFF, ADC);
	SPI0_send_1_byte(0xFF, ADC);
     e86:	f7ff ffd9 	bl	e3c <SPI0_send_1_byte>
	SPI0_send_1_byte(0xFF, ADC);
     e8a:	2112      	movs	r1, #18
     e8c:	20ff      	movs	r0, #255	; 0xff
     e8e:	f7ff ffd5 	bl	e3c <SPI0_send_1_byte>
	SPI0_send_1_byte(0xFF, ADC);
     e92:	2112      	movs	r1, #18
     e94:	20ff      	movs	r0, #255	; 0xff
     e96:	f7ff ffd1 	bl	e3c <SPI0_send_1_byte>
	FIO1SET |= 1 << ADC;
     e9a:	6823      	ldr	r3, [r4, #0]
     e9c:	4333      	orrs	r3, r6
     e9e:	6023      	str	r3, [r4, #0]

	/* Delay because adc needs 500us after reset sequence */
	for (dat = 0; dat < 2000; dat++);

	FIO1CLR |= 1 << ADC;
     ea0:	682b      	ldr	r3, [r5, #0]
     ea2:	4333      	orrs	r3, r6
     ea4:	602b      	str	r3, [r5, #0]
	SPI0_send_1_byte(WRITE_CONF_REG, ADC);
     ea6:	2112      	movs	r1, #18
     ea8:	2010      	movs	r0, #16
     eaa:	f7ff ffc7 	bl	e3c <SPI0_send_1_byte>
	SPI0_send_2_byte((CONF_REG_VAL | 1), ADC);
     eae:	2112      	movs	r1, #18
     eb0:	4815      	ldr	r0, [pc, #84]	; (f08 <VIC_VectAddr+0x8>)
     eb2:	f7ff ff83 	bl	dbc <SPI0_send_2_byte>
	FIO1SET |= 1 << ADC;
     eb6:	6823      	ldr	r3, [r4, #0]
     eb8:	4333      	orrs	r3, r6
     eba:	6023      	str	r3, [r4, #0]

	for (dat = 0; dat < 2000; dat++);

	FIO1CLR |= 1 << ADC;
     ebc:	682b      	ldr	r3, [r5, #0]
     ebe:	4333      	orrs	r3, r6
     ec0:	602b      	str	r3, [r5, #0]
	SPI0_send_1_byte(WRITE_MODE_REG, ADC);
     ec2:	2112      	movs	r1, #18
     ec4:	2008      	movs	r0, #8
     ec6:	f7ff ffb9 	bl	e3c <SPI0_send_1_byte>
	SPI0_send_2_byte(MODE_REG_VAL, ADC);
     eca:	2112      	movs	r1, #18
     ecc:	2001      	movs	r0, #1
     ece:	f7ff ff75 	bl	dbc <SPI0_send_2_byte>
	FIO1SET |= 1 << ADC;
     ed2:	6823      	ldr	r3, [r4, #0]
     ed4:	431e      	orrs	r6, r3
     ed6:	6026      	str	r6, [r4, #0]

	FIO1CLR |= 1 << DAC;
     ed8:	2680      	movs	r6, #128	; 0x80
     eda:	682b      	ldr	r3, [r5, #0]
     edc:	05b6      	lsls	r6, r6, #22
     ede:	4333      	orrs	r3, r6
     ee0:	602b      	str	r3, [r5, #0]
	SPI0_send_2_byte((0x1000 | 578), DAC);
     ee2:	211d      	movs	r1, #29
     ee4:	4809      	ldr	r0, [pc, #36]	; (f0c <VIC_VectAddr+0xc>)
     ee6:	f7ff ff69 	bl	dbc <SPI0_send_2_byte>
	FIO1SET |= 1 << DAC;
     eea:	6823      	ldr	r3, [r4, #0]
     eec:	4333      	orrs	r3, r6
     eee:	6023      	str	r3, [r4, #0]

	/* Switch on green led to indicate successful  initialization */
	led_set(LED1);
     ef0:	2000      	movs	r0, #0
     ef2:	f7ff fbc3 	bl	67c <led_set>

}
     ef6:	bc70      	pop	{r4, r5, r6}
     ef8:	bc01      	pop	{r0}
     efa:	4700      	bx	r0
     efc:	3fffc034 	.word	0x3fffc034
     f00:	3fffc03c 	.word	0x3fffc03c
     f04:	3fffc038 	.word	0x3fffc038
     f08:	00001001 	.word	0x00001001
     f0c:	00001242 	.word	0x00001242

00000f10 <dac_set_voltage>:

void dac_set_voltage(uint16_t voltage)
{
     f10:	b510      	push	{r4, lr}
	/* SPI0_send_2_byte((voltage | DAC_LOAD_CMD)); */
	FIO1CLR |= 1 << DAC;
     f12:	2480      	movs	r4, #128	; 0x80
     f14:	4a08      	ldr	r2, [pc, #32]	; (f38 <dac_set_voltage+0x28>)
     f16:	6813      	ldr	r3, [r2, #0]
     f18:	05a4      	lsls	r4, r4, #22
     f1a:	4323      	orrs	r3, r4
     f1c:	6013      	str	r3, [r2, #0]
	SPI0_send_2_byte((0x1000 | voltage), DAC);
     f1e:	2380      	movs	r3, #128	; 0x80
     f20:	015b      	lsls	r3, r3, #5
     f22:	4318      	orrs	r0, r3
     f24:	211d      	movs	r1, #29
     f26:	f7ff ff49 	bl	dbc <SPI0_send_2_byte>
	FIO1SET |= 1 << DAC;
     f2a:	4a04      	ldr	r2, [pc, #16]	; (f3c <dac_set_voltage+0x2c>)
     f2c:	6813      	ldr	r3, [r2, #0]
     f2e:	4323      	orrs	r3, r4
     f30:	6013      	str	r3, [r2, #0]
}
     f32:	bc10      	pop	{r4}
     f34:	bc01      	pop	{r0}
     f36:	4700      	bx	r0
     f38:	3fffc03c 	.word	0x3fffc03c
     f3c:	3fffc038 	.word	0x3fffc038

00000f40 <adc_read_current>:

uint16_t adc_read_current(void)
{
     f40:	b570      	push	{r4, r5, r6, lr}
	uint16_t current;
	/* Need to select proper channel */
	FIO1CLR |= 1 << ADC;
     f42:	2580      	movs	r5, #128	; 0x80
     f44:	4e11      	ldr	r6, [pc, #68]	; (f8c <adc_read_current+0x4c>)
     f46:	6833      	ldr	r3, [r6, #0]
     f48:	02ed      	lsls	r5, r5, #11
     f4a:	432b      	orrs	r3, r5
     f4c:	6033      	str	r3, [r6, #0]
	SPI0_send_1_byte(WRITE_CONF_REG, ADC);
     f4e:	2112      	movs	r1, #18
     f50:	2010      	movs	r0, #16
     f52:	f7ff ff73 	bl	e3c <SPI0_send_1_byte>
	SPI0_send_2_byte(CONF_REG_VAL, ADC);
     f56:	2080      	movs	r0, #128	; 0x80
	FIO1SET |= 1 << ADC;
     f58:	4c0d      	ldr	r4, [pc, #52]	; (f90 <adc_read_current+0x50>)
{
	uint16_t current;
	/* Need to select proper channel */
	FIO1CLR |= 1 << ADC;
	SPI0_send_1_byte(WRITE_CONF_REG, ADC);
	SPI0_send_2_byte(CONF_REG_VAL, ADC);
     f5a:	2112      	movs	r1, #18
     f5c:	0140      	lsls	r0, r0, #5
     f5e:	f7ff ff2d 	bl	dbc <SPI0_send_2_byte>
	FIO1SET |= 1 << ADC;
     f62:	6823      	ldr	r3, [r4, #0]
     f64:	432b      	orrs	r3, r5
     f66:	6023      	str	r3, [r4, #0]

	for (current = 0; current < 200; current++);
	FIO1CLR |= 1 << ADC;
     f68:	6833      	ldr	r3, [r6, #0]
     f6a:	432b      	orrs	r3, r5
     f6c:	6033      	str	r3, [r6, #0]
	SPI0_send_1_byte(READ_DATA_REG, ADC);
     f6e:	2112      	movs	r1, #18
     f70:	2058      	movs	r0, #88	; 0x58
     f72:	f7ff ff63 	bl	e3c <SPI0_send_1_byte>
	current = SPI0_send_2_byte(0xFFFF, ADC);
     f76:	2112      	movs	r1, #18
     f78:	4806      	ldr	r0, [pc, #24]	; (f94 <adc_read_current+0x54>)
     f7a:	f7ff ff1f 	bl	dbc <SPI0_send_2_byte>
	FIO1SET |= 1 << ADC;
     f7e:	6823      	ldr	r3, [r4, #0]
     f80:	431d      	orrs	r5, r3
     f82:	6025      	str	r5, [r4, #0]

	return current;
}
     f84:	bc70      	pop	{r4, r5, r6}
     f86:	bc02      	pop	{r1}
     f88:	4708      	bx	r1
     f8a:	46c0      	nop			; (mov r8, r8)
     f8c:	3fffc03c 	.word	0x3fffc03c
     f90:	3fffc038 	.word	0x3fffc038
     f94:	0000ffff 	.word	0x0000ffff

00000f98 <adc_read_voltage>:

uint16_t adc_read_voltage(void)
{
     f98:	b570      	push	{r4, r5, r6, lr}
	uint16_t voltage;
	/* Need to select proper channel */
	FIO1CLR |= 1 << ADC;
     f9a:	2580      	movs	r5, #128	; 0x80
     f9c:	4e10      	ldr	r6, [pc, #64]	; (fe0 <adc_read_voltage+0x48>)
     f9e:	6833      	ldr	r3, [r6, #0]
     fa0:	02ed      	lsls	r5, r5, #11
     fa2:	432b      	orrs	r3, r5
     fa4:	6033      	str	r3, [r6, #0]
	SPI0_send_1_byte(WRITE_CONF_REG, ADC);
	SPI0_send_2_byte((CONF_REG_VAL | 1), ADC);	// | 1 - select 2 channel
	FIO1SET |= 1 << ADC;
     fa6:	4c0f      	ldr	r4, [pc, #60]	; (fe4 <adc_read_voltage+0x4c>)
uint16_t adc_read_voltage(void)
{
	uint16_t voltage;
	/* Need to select proper channel */
	FIO1CLR |= 1 << ADC;
	SPI0_send_1_byte(WRITE_CONF_REG, ADC);
     fa8:	2112      	movs	r1, #18
     faa:	2010      	movs	r0, #16
     fac:	f7ff ff46 	bl	e3c <SPI0_send_1_byte>
	SPI0_send_2_byte((CONF_REG_VAL | 1), ADC);	// | 1 - select 2 channel
     fb0:	2112      	movs	r1, #18
     fb2:	480d      	ldr	r0, [pc, #52]	; (fe8 <adc_read_voltage+0x50>)
     fb4:	f7ff ff02 	bl	dbc <SPI0_send_2_byte>
	FIO1SET |= 1 << ADC;
     fb8:	6823      	ldr	r3, [r4, #0]
     fba:	432b      	orrs	r3, r5
     fbc:	6023      	str	r3, [r4, #0]
	for (voltage = 0; voltage < 200; voltage ++);

	FIO1CLR |= 1 << ADC;
     fbe:	6833      	ldr	r3, [r6, #0]
     fc0:	432b      	orrs	r3, r5
     fc2:	6033      	str	r3, [r6, #0]
	SPI0_send_1_byte(READ_DATA_REG, ADC);
     fc4:	2112      	movs	r1, #18
     fc6:	2058      	movs	r0, #88	; 0x58
     fc8:	f7ff ff38 	bl	e3c <SPI0_send_1_byte>
	voltage = SPI0_send_2_byte(0xFFFF, ADC);
     fcc:	2112      	movs	r1, #18
     fce:	4807      	ldr	r0, [pc, #28]	; (fec <adc_read_voltage+0x54>)
     fd0:	f7ff fef4 	bl	dbc <SPI0_send_2_byte>
	FIO1SET |= 1 << ADC;
     fd4:	6823      	ldr	r3, [r4, #0]
     fd6:	431d      	orrs	r5, r3
     fd8:	6025      	str	r5, [r4, #0]

	return voltage;

}
     fda:	bc70      	pop	{r4, r5, r6}
     fdc:	bc02      	pop	{r1}
     fde:	4708      	bx	r1
     fe0:	3fffc03c 	.word	0x3fffc03c
     fe4:	3fffc038 	.word	0x3fffc038
     fe8:	00001001 	.word	0x00001001
     fec:	0000ffff 	.word	0x0000ffff

00000ff0 <timer0_init>:
	}
	VICVectAddr = 0;
}
void timer0_init(void)
{
	PCONP |= (1 << 1);	/* Power on tim0 */
     ff0:	2102      	movs	r1, #2
     ff2:	4a0f      	ldr	r2, [pc, #60]	; (1030 <timer0_init+0x40>)
		FIO1SET |= 1 << ADC;
	}
	VICVectAddr = 0;
}
void timer0_init(void)
{
     ff4:	b508      	push	{r3, lr}
	PCONP |= (1 << 1);	/* Power on tim0 */
     ff6:	6813      	ldr	r3, [r2, #0]
     ff8:	430b      	orrs	r3, r1
     ffa:	6013      	str	r3, [r2, #0]
	T0TCR = 0;	/* Disable tim0 */
     ffc:	2300      	movs	r3, #0
     ffe:	4a0d      	ldr	r2, [pc, #52]	; (1034 <timer0_init+0x44>)
    1000:	6013      	str	r3, [r2, #0]

	T0IR = (1 << 0);	/* Channel 0 match interrupt */
    1002:	4a0d      	ldr	r2, [pc, #52]	; (1038 <timer0_init+0x48>)
    1004:	3901      	subs	r1, #1
    1006:	6011      	str	r1, [r2, #0]
	T0MCR = 3;
    1008:	4a0c      	ldr	r2, [pc, #48]	; (103c <timer0_init+0x4c>)
    100a:	3102      	adds	r1, #2
    100c:	6011      	str	r1, [r2, #0]
	T0CTCR = 0;
    100e:	4a0c      	ldr	r2, [pc, #48]	; (1040 <timer0_init+0x50>)
    1010:	6013      	str	r3, [r2, #0]
	T0PR = 25;	/* Prescaler */
    1012:	2219      	movs	r2, #25
    1014:	4b0b      	ldr	r3, [pc, #44]	; (1044 <timer0_init+0x54>)
    1016:	601a      	str	r2, [r3, #0]
	T0MR0 = 72000;	/* Top value (5 Hz) */
    1018:	4a0b      	ldr	r2, [pc, #44]	; (1048 <timer0_init+0x58>)
    101a:	4b0c      	ldr	r3, [pc, #48]	; (104c <timer0_init+0x5c>)
	RegisterIrq(TIMER0_IRQn, (void *)Isr_TIM0, PRI_LOWEST);
    101c:	2004      	movs	r0, #4

	T0IR = (1 << 0);	/* Channel 0 match interrupt */
	T0MCR = 3;
	T0CTCR = 0;
	T0PR = 25;	/* Prescaler */
	T0MR0 = 72000;	/* Top value (5 Hz) */
    101e:	601a      	str	r2, [r3, #0]
	RegisterIrq(TIMER0_IRQn, (void *)Isr_TIM0, PRI_LOWEST);
    1020:	490b      	ldr	r1, [pc, #44]	; (1050 <timer0_init+0x60>)
    1022:	220f      	movs	r2, #15
    1024:	f7ff fbea 	bl	7fc <RegisterIrq>
}
    1028:	bc08      	pop	{r3}
    102a:	bc01      	pop	{r0}
    102c:	4700      	bx	r0
    102e:	46c0      	nop			; (mov r8, r8)
    1030:	e01fc0c4 	.word	0xe01fc0c4
    1034:	e0004004 	.word	0xe0004004
    1038:	e0004000 	.word	0xe0004000
    103c:	e0004014 	.word	0xe0004014
    1040:	e0004070 	.word	0xe0004070
    1044:	e000400c 	.word	0xe000400c
    1048:	00011940 	.word	0x00011940
    104c:	e0004018 	.word	0xe0004018
    1050:	0000111d 	.word	0x0000111d

00001054 <timer0_start>:

void timer0_start(void)
{
	T0TCR |= 1;
    1054:	2101      	movs	r1, #1
    1056:	4a06      	ldr	r2, [pc, #24]	; (1070 <timer0_start+0x1c>)
	T0MR0 = 72000;	/* Top value (5 Hz) */
	RegisterIrq(TIMER0_IRQn, (void *)Isr_TIM0, PRI_LOWEST);
}

void timer0_start(void)
{
    1058:	b508      	push	{r3, lr}
	T0TCR |= 1;
    105a:	6813      	ldr	r3, [r2, #0]
    105c:	430b      	orrs	r3, r1
    105e:	6013      	str	r3, [r2, #0]
	gpio_set(OP_AMP_PORT, OP_AMP_PIN);
    1060:	2002      	movs	r0, #2
    1062:	310c      	adds	r1, #12
    1064:	f7ff fb1e 	bl	6a4 <gpio_set>
}
    1068:	bc08      	pop	{r3}
    106a:	bc01      	pop	{r0}
    106c:	4700      	bx	r0
    106e:	46c0      	nop			; (mov r8, r8)
    1070:	e0004004 	.word	0xe0004004

00001074 <timer0_stop>:

void timer0_stop(void)
{
	T0TCR &= ~1;
    1074:	2101      	movs	r1, #1
    1076:	4a06      	ldr	r2, [pc, #24]	; (1090 <timer0_stop+0x1c>)
	T0TCR |= 1;
	gpio_set(OP_AMP_PORT, OP_AMP_PIN);
}

void timer0_stop(void)
{
    1078:	b508      	push	{r3, lr}
	T0TCR &= ~1;
    107a:	6813      	ldr	r3, [r2, #0]
    107c:	438b      	bics	r3, r1
    107e:	6013      	str	r3, [r2, #0]
	gpio_clear(OP_AMP_PORT, OP_AMP_PIN);
    1080:	2002      	movs	r0, #2
    1082:	310c      	adds	r1, #12
    1084:	f7ff fb30 	bl	6e8 <gpio_clear>
}
    1088:	bc08      	pop	{r3}
    108a:	bc01      	pop	{r0}
    108c:	4700      	bx	r0
    108e:	46c0      	nop			; (mov r8, r8)
    1090:	e0004004 	.word	0xe0004004

00001094 <ftoa>:
void ftoa(float num, char *str)
{
    1094:	b570      	push	{r4, r5, r6, lr}
    1096:	b086      	sub	sp, #24
    1098:	1c0c      	adds	r4, r1, #0
    109a:	1c05      	adds	r5, r0, #0
	int intpart = num;
    109c:	f001 fbee 	bl	287c <____aeabi_f2iz_from_thumb>
    10a0:	1c06      	adds	r6, r0, #0
	int intdecimal;
	int i;
	float decimal_part;
	char decimal[20];

	memset(str, 0x0, 20);
    10a2:	2100      	movs	r1, #0
    10a4:	2214      	movs	r2, #20
    10a6:	1c20      	adds	r0, r4, #0
    10a8:	f000 f944 	bl	1334 <memset>
	itoa(num, str, 10);
    10ac:	220a      	movs	r2, #10
    10ae:	1c21      	adds	r1, r4, #0
    10b0:	1c30      	adds	r0, r6, #0
    10b2:	f000 f939 	bl	1328 <itoa>

	strcat(str, ".");
    10b6:	4916      	ldr	r1, [pc, #88]	; (1110 <ftoa+0x7c>)
    10b8:	1c20      	adds	r0, r4, #0
    10ba:	f000 f985 	bl	13c8 <strcat>

	decimal_part = num - intpart;
    10be:	1c30      	adds	r0, r6, #0
    10c0:	f001 fbd8 	bl	2874 <____aeabi_i2f_from_thumb>
    10c4:	1c01      	adds	r1, r0, #0
    10c6:	1c28      	adds	r0, r5, #0
    10c8:	f001 fbdc 	bl	2884 <____aeabi_fsub_from_thumb>
	intdecimal = decimal_part * 1000000;
    10cc:	4911      	ldr	r1, [pc, #68]	; (1114 <ftoa+0x80>)
    10ce:	f001 fbaf 	bl	2830 <____aeabi_fmul_from_thumb>
    10d2:	f001 fbd3 	bl	287c <____aeabi_f2iz_from_thumb>
    10d6:	17c3      	asrs	r3, r0, #31
    10d8:	18c0      	adds	r0, r0, r3
    10da:	4058      	eors	r0, r3

	if(intdecimal < 0)
	{
		intdecimal = -intdecimal;
	}
	itoa(intdecimal, decimal, 10);
    10dc:	a901      	add	r1, sp, #4
    10de:	220a      	movs	r2, #10
    10e0:	f000 f922 	bl	1328 <itoa>
	for(i =0;i < (PRECISION - strlen(decimal));i++)
    10e4:	2500      	movs	r5, #0
    10e6:	a801      	add	r0, sp, #4
    10e8:	f000 f9a0 	bl	142c <strlen>
    10ec:	2306      	movs	r3, #6
    10ee:	1a18      	subs	r0, r3, r0
    10f0:	4285      	cmp	r5, r0
    10f2:	d205      	bcs.n	1100 <ftoa+0x6c>
	{
		strcat(str, "0");
    10f4:	1c20      	adds	r0, r4, #0
    10f6:	4908      	ldr	r1, [pc, #32]	; (1118 <ftoa+0x84>)
    10f8:	f000 f966 	bl	13c8 <strcat>
	if(intdecimal < 0)
	{
		intdecimal = -intdecimal;
	}
	itoa(intdecimal, decimal, 10);
	for(i =0;i < (PRECISION - strlen(decimal));i++)
    10fc:	3501      	adds	r5, #1
    10fe:	e7f2      	b.n	10e6 <ftoa+0x52>
	{
		strcat(str, "0");
	}
	strcat(str, decimal);
    1100:	1c20      	adds	r0, r4, #0
    1102:	a901      	add	r1, sp, #4
    1104:	f000 f960 	bl	13c8 <strcat>
}
    1108:	b006      	add	sp, #24
    110a:	bc70      	pop	{r4, r5, r6}
    110c:	bc01      	pop	{r0}
    110e:	4700      	bx	r0
    1110:	000029bd 	.word	0x000029bd
    1114:	49742400 	.word	0x49742400
    1118:	000029bf 	.word	0x000029bf

0000111c <Isr_TIM0>:
extern uint8_t channel;
extern uint16_t volts, curr;
void Isr_TIM0(void)
{
	uint16_t dat;
	T0IR = 0x3F;
    111c:	223f      	movs	r2, #63	; 0x3f
	uint8_t data;
	uint8_t num = 5;
	char *volt_ascii[50];
	char *curr_ascii[50];
	FIO1PIN |= (1 << ADC_SCLK);
    111e:	2180      	movs	r1, #128	; 0x80
extern uint8_t channel;
extern uint16_t volts, curr;
void Isr_TIM0(void)
{
	uint16_t dat;
	T0IR = 0x3F;
    1120:	4b5c      	ldr	r3, [pc, #368]	; (1294 <Isr_TIM0+0x178>)
extern void gpio_clear(uint8_t port, uint8_t pin);
extern uint8_t native;
extern uint8_t channel;
extern uint16_t volts, curr;
void Isr_TIM0(void)
{
    1122:	b5f0      	push	{r4, r5, r6, r7, lr}
	uint16_t dat;
	T0IR = 0x3F;
    1124:	601a      	str	r2, [r3, #0]
	uint8_t data;
	uint8_t num = 5;
	char *volt_ascii[50];
	char *curr_ascii[50];
	FIO1PIN |= (1 << ADC_SCLK);
    1126:	4a5c      	ldr	r2, [pc, #368]	; (1298 <Isr_TIM0+0x17c>)
    1128:	6813      	ldr	r3, [r2, #0]
    112a:	0349      	lsls	r1, r1, #13
    112c:	430b      	orrs	r3, r1
    112e:	6013      	str	r3, [r2, #0]
	if (channel == 1)
    1130:	4e5a      	ldr	r6, [pc, #360]	; (129c <Isr_TIM0+0x180>)
    1132:	7833      	ldrb	r3, [r6, #0]
extern void gpio_clear(uint8_t port, uint8_t pin);
extern uint8_t native;
extern uint8_t channel;
extern uint16_t volts, curr;
void Isr_TIM0(void)
{
    1134:	b0e5      	sub	sp, #404	; 0x194
	uint8_t data;
	uint8_t num = 5;
	char *volt_ascii[50];
	char *curr_ascii[50];
	FIO1PIN |= (1 << ADC_SCLK);
	if (channel == 1)
    1136:	2b01      	cmp	r3, #1
    1138:	d000      	beq.n	113c <Isr_TIM0+0x20>
    113a:	e089      	b.n	1250 <Isr_TIM0+0x134>
	{
		volts = adc_read_voltage();
		channel = 0;
    113c:	2500      	movs	r5, #0
	char *volt_ascii[50];
	char *curr_ascii[50];
	FIO1PIN |= (1 << ADC_SCLK);
	if (channel == 1)
	{
		volts = adc_read_voltage();
    113e:	f7ff ff2b 	bl	f98 <adc_read_voltage>
		channel = 0;
    1142:	7035      	strb	r5, [r6, #0]
		/* Need to select proper channel */
		FIO1CLR |= 1 << ADC;
    1144:	2680      	movs	r6, #128	; 0x80
    1146:	4a56      	ldr	r2, [pc, #344]	; (12a0 <Isr_TIM0+0x184>)
    1148:	6813      	ldr	r3, [r2, #0]
    114a:	02f6      	lsls	r6, r6, #11
	char *volt_ascii[50];
	char *curr_ascii[50];
	FIO1PIN |= (1 << ADC_SCLK);
	if (channel == 1)
	{
		volts = adc_read_voltage();
    114c:	4c55      	ldr	r4, [pc, #340]	; (12a4 <Isr_TIM0+0x188>)
		channel = 0;
		/* Need to select proper channel */
		FIO1CLR |= 1 << ADC;
    114e:	4333      	orrs	r3, r6
	char *volt_ascii[50];
	char *curr_ascii[50];
	FIO1PIN |= (1 << ADC_SCLK);
	if (channel == 1)
	{
		volts = adc_read_voltage();
    1150:	8020      	strh	r0, [r4, #0]
		channel = 0;
		/* Need to select proper channel */
		FIO1CLR |= 1 << ADC;
		SPI0_send_1_byte(WRITE_CONF_REG, ADC);
    1152:	2112      	movs	r1, #18
	if (channel == 1)
	{
		volts = adc_read_voltage();
		channel = 0;
		/* Need to select proper channel */
		FIO1CLR |= 1 << ADC;
    1154:	6013      	str	r3, [r2, #0]
		SPI0_send_1_byte(WRITE_CONF_REG, ADC);
    1156:	2010      	movs	r0, #16
    1158:	f7ff fe70 	bl	e3c <SPI0_send_1_byte>
		SPI0_send_2_byte(CONF_REG_VAL, ADC);
    115c:	2080      	movs	r0, #128	; 0x80
    115e:	2112      	movs	r1, #18
    1160:	0140      	lsls	r0, r0, #5
    1162:	f7ff fe2b 	bl	dbc <SPI0_send_2_byte>
		FIO1SET |= 1 << ADC;
    1166:	4a50      	ldr	r2, [pc, #320]	; (12a8 <Isr_TIM0+0x18c>)
    1168:	6813      	ldr	r3, [r2, #0]
    116a:	4333      	orrs	r3, r6
    116c:	6013      	str	r3, [r2, #0]
		if (native == 1)
    116e:	4b4f      	ldr	r3, [pc, #316]	; (12ac <Isr_TIM0+0x190>)
    1170:	781b      	ldrb	r3, [r3, #0]
    1172:	4f4f      	ldr	r7, [pc, #316]	; (12b0 <Isr_TIM0+0x194>)
    1174:	4e4f      	ldr	r6, [pc, #316]	; (12b4 <Isr_TIM0+0x198>)
    1176:	2b01      	cmp	r3, #1
    1178:	d138      	bne.n	11ec <Isr_TIM0+0xd0>
		{
			/* UART0_send("\nOutput voltage: ",17 ); */
			UART0_send("\n\nVoltage, V  : ",16 );
    117a:	1c38      	adds	r0, r7, #0
    117c:	2110      	movs	r1, #16
    117e:	f7ff fc3b 	bl	9f8 <UART0_send>

			if (volts < 10000)
    1182:	4f4d      	ldr	r7, [pc, #308]	; (12b8 <Isr_TIM0+0x19c>)
    1184:	8820      	ldrh	r0, [r4, #0]
void Isr_TIM0(void)
{
	uint16_t dat;
	T0IR = 0x3F;
	uint8_t data;
	uint8_t num = 5;
    1186:	2405      	movs	r4, #5
		if (native == 1)
		{
			/* UART0_send("\nOutput voltage: ",17 ); */
			UART0_send("\n\nVoltage, V  : ",16 );

			if (volts < 10000)
    1188:	42b8      	cmp	r0, r7
    118a:	d80b      	bhi.n	11a4 <Isr_TIM0+0x88>
				num = 4;
			if (volts < 1000)
    118c:	4b4b      	ldr	r3, [pc, #300]	; (12bc <Isr_TIM0+0x1a0>)
		{
			/* UART0_send("\nOutput voltage: ",17 ); */
			UART0_send("\n\nVoltage, V  : ",16 );

			if (volts < 10000)
				num = 4;
    118e:	3c01      	subs	r4, #1
			if (volts < 1000)
    1190:	4298      	cmp	r0, r3
    1192:	d807      	bhi.n	11a4 <Isr_TIM0+0x88>
				num = 3;
    1194:	3c01      	subs	r4, #1
			if (volts < 100)
    1196:	2863      	cmp	r0, #99	; 0x63
    1198:	d804      	bhi.n	11a4 <Isr_TIM0+0x88>
				num = 2;
    119a:	2309      	movs	r3, #9
    119c:	4283      	cmp	r3, r0
    119e:	416d      	adcs	r5, r5
    11a0:	3c01      	subs	r4, #1
    11a2:	1b64      	subs	r4, r4, r5
			if (volts < 10)
				num = 1;
			UART0_send(itoa(volts, volt_ascii,10), num);
    11a4:	220a      	movs	r2, #10
    11a6:	4669      	mov	r1, sp
    11a8:	f000 f8be 	bl	1328 <itoa>
    11ac:	0421      	lsls	r1, r4, #16
    11ae:	0c09      	lsrs	r1, r1, #16
    11b0:	f7ff fc22 	bl	9f8 <UART0_send>
			/* UART0_send("\nCurrent: ",10 ); */
			UART0_send("\nCurrent, mkA: ",15 );
    11b4:	1c30      	adds	r0, r6, #0
    11b6:	210f      	movs	r1, #15
    11b8:	f7ff fc1e 	bl	9f8 <UART0_send>
			if (curr < 10000)
    11bc:	4b40      	ldr	r3, [pc, #256]	; (12c0 <Isr_TIM0+0x1a4>)
    11be:	8818      	ldrh	r0, [r3, #0]
    11c0:	42b8      	cmp	r0, r7
    11c2:	d80c      	bhi.n	11de <Isr_TIM0+0xc2>
				num = 4;
			if (curr < 1000)
    11c4:	4b3d      	ldr	r3, [pc, #244]	; (12bc <Isr_TIM0+0x1a0>)
				num = 1;
			UART0_send(itoa(volts, volt_ascii,10), num);
			/* UART0_send("\nCurrent: ",10 ); */
			UART0_send("\nCurrent, mkA: ",15 );
			if (curr < 10000)
				num = 4;
    11c6:	2404      	movs	r4, #4
			if (curr < 1000)
    11c8:	4298      	cmp	r0, r3
    11ca:	d808      	bhi.n	11de <Isr_TIM0+0xc2>
				num = 3;
    11cc:	3c01      	subs	r4, #1
			if (curr < 100)
    11ce:	2863      	cmp	r0, #99	; 0x63
    11d0:	d805      	bhi.n	11de <Isr_TIM0+0xc2>
				num = 2;
    11d2:	2400      	movs	r4, #0
    11d4:	2309      	movs	r3, #9
    11d6:	2102      	movs	r1, #2
    11d8:	4283      	cmp	r3, r0
    11da:	4164      	adcs	r4, r4
    11dc:	1b0c      	subs	r4, r1, r4
			if (curr < 10)
				num = 1;
			UART0_send(itoa(curr, curr_ascii,10), num);
    11de:	a932      	add	r1, sp, #200	; 0xc8
    11e0:	220a      	movs	r2, #10
    11e2:	f000 f8a1 	bl	1328 <itoa>
    11e6:	0421      	lsls	r1, r4, #16
    11e8:	0c09      	lsrs	r1, r1, #16
    11ea:	e02e      	b.n	124a <Isr_TIM0+0x12e>
			float fvolts;
			float fcurr;
			uint16_t volt_ascii_pointer;
			uint16_t curr_ascii_pointer;

			fvolts = (volts - 9211)/1065.2;
    11ec:	8820      	ldrh	r0, [r4, #0]
    11ee:	4b35      	ldr	r3, [pc, #212]	; (12c4 <Isr_TIM0+0x1a8>)
    11f0:	18c0      	adds	r0, r0, r3
    11f2:	f001 fb4b 	bl	288c <____aeabi_i2d_from_thumb>
    11f6:	4a34      	ldr	r2, [pc, #208]	; (12c8 <Isr_TIM0+0x1ac>)
    11f8:	4b34      	ldr	r3, [pc, #208]	; (12cc <Isr_TIM0+0x1b0>)
    11fa:	f001 fb21 	bl	2840 <____aeabi_ddiv_from_thumb>
    11fe:	f001 fb2d 	bl	285c <____aeabi_d2f_from_thumb>
			fcurr = (curr - 6037)/0.7927817;
    1202:	4b2f      	ldr	r3, [pc, #188]	; (12c0 <Isr_TIM0+0x1a4>)
			float fvolts;
			float fcurr;
			uint16_t volt_ascii_pointer;
			uint16_t curr_ascii_pointer;

			fvolts = (volts - 9211)/1065.2;
    1204:	1c04      	adds	r4, r0, #0
			fcurr = (curr - 6037)/0.7927817;
    1206:	8818      	ldrh	r0, [r3, #0]
    1208:	4b31      	ldr	r3, [pc, #196]	; (12d0 <Isr_TIM0+0x1b4>)
    120a:	18c0      	adds	r0, r0, r3
    120c:	f001 fb3e 	bl	288c <____aeabi_i2d_from_thumb>
    1210:	4a30      	ldr	r2, [pc, #192]	; (12d4 <Isr_TIM0+0x1b8>)
    1212:	4b31      	ldr	r3, [pc, #196]	; (12d8 <Isr_TIM0+0x1bc>)
    1214:	f001 fb14 	bl	2840 <____aeabi_ddiv_from_thumb>
    1218:	f001 fb20 	bl	285c <____aeabi_d2f_from_thumb>
			/* fvolts = (volts)/3.3; */
			/* fcurr = (curr - 1000); */

			UART0_send("\n\nVoltage, V  : ",16 );
    121c:	2110      	movs	r1, #16
			float fcurr;
			uint16_t volt_ascii_pointer;
			uint16_t curr_ascii_pointer;

			fvolts = (volts - 9211)/1065.2;
			fcurr = (curr - 6037)/0.7927817;
    121e:	1c05      	adds	r5, r0, #0
			/* fvolts = (volts)/3.3; */
			/* fcurr = (curr - 1000); */

			UART0_send("\n\nVoltage, V  : ",16 );
    1220:	1c38      	adds	r0, r7, #0
    1222:	f7ff fbe9 	bl	9f8 <UART0_send>
			/* sprintf(volt_ascii, "%+f", fvolts); */
			ftoa(fvolts, volt_ascii);
    1226:	1c20      	adds	r0, r4, #0
    1228:	4669      	mov	r1, sp
    122a:	f7ff ff33 	bl	1094 <ftoa>
			UART0_send(volt_ascii, 6);
    122e:	4668      	mov	r0, sp
    1230:	2106      	movs	r1, #6
    1232:	f7ff fbe1 	bl	9f8 <UART0_send>
			UART0_send("\nCurrent, mkA: ",15 );
    1236:	1c30      	adds	r0, r6, #0
    1238:	210f      	movs	r1, #15
    123a:	f7ff fbdd 	bl	9f8 <UART0_send>
			/* sprintf(curr_ascii, "+%f", fcurr); */
			ftoa(fcurr, curr_ascii);
    123e:	1c28      	adds	r0, r5, #0
    1240:	a932      	add	r1, sp, #200	; 0xc8
    1242:	f7ff ff27 	bl	1094 <ftoa>
			UART0_send(curr_ascii, 6);
    1246:	2106      	movs	r1, #6
    1248:	a832      	add	r0, sp, #200	; 0xc8
    124a:	f7ff fbd5 	bl	9f8 <UART0_send>
    124e:	e019      	b.n	1284 <Isr_TIM0+0x168>

		}
	}else if (channel == 0)
    1250:	2b00      	cmp	r3, #0
    1252:	d117      	bne.n	1284 <Isr_TIM0+0x168>
	{
		curr = adc_read_current();
    1254:	f7ff fe74 	bl	f40 <adc_read_current>
    1258:	4b19      	ldr	r3, [pc, #100]	; (12c0 <Isr_TIM0+0x1a4>)
    125a:	8018      	strh	r0, [r3, #0]
		channel = 1;
    125c:	2301      	movs	r3, #1
		/* Need to select proper channel */
		FIO1CLR |= 1 << ADC;
    125e:	2480      	movs	r4, #128	; 0x80
    1260:	4a0f      	ldr	r2, [pc, #60]	; (12a0 <Isr_TIM0+0x184>)

		}
	}else if (channel == 0)
	{
		curr = adc_read_current();
		channel = 1;
    1262:	7033      	strb	r3, [r6, #0]
		/* Need to select proper channel */
		FIO1CLR |= 1 << ADC;
    1264:	6813      	ldr	r3, [r2, #0]
    1266:	02e4      	lsls	r4, r4, #11
    1268:	4323      	orrs	r3, r4
    126a:	6013      	str	r3, [r2, #0]
		SPI0_send_1_byte(WRITE_CONF_REG, ADC);
    126c:	2112      	movs	r1, #18
    126e:	2010      	movs	r0, #16
    1270:	f7ff fde4 	bl	e3c <SPI0_send_1_byte>
		SPI0_send_2_byte((CONF_REG_VAL | 1), ADC);
    1274:	4819      	ldr	r0, [pc, #100]	; (12dc <Isr_TIM0+0x1c0>)
    1276:	2112      	movs	r1, #18
    1278:	f7ff fda0 	bl	dbc <SPI0_send_2_byte>
		FIO1SET |= 1 << ADC;
    127c:	4a0a      	ldr	r2, [pc, #40]	; (12a8 <Isr_TIM0+0x18c>)
    127e:	6813      	ldr	r3, [r2, #0]
    1280:	4323      	orrs	r3, r4
    1282:	6013      	str	r3, [r2, #0]
	}
	VICVectAddr = 0;
    1284:	2200      	movs	r2, #0
    1286:	4b16      	ldr	r3, [pc, #88]	; (12e0 <Isr_TIM0+0x1c4>)
    1288:	601a      	str	r2, [r3, #0]
}
    128a:	b065      	add	sp, #404	; 0x194
    128c:	bcf0      	pop	{r4, r5, r6, r7}
    128e:	bc01      	pop	{r0}
    1290:	4700      	bx	r0
    1292:	46c0      	nop			; (mov r8, r8)
    1294:	e0004000 	.word	0xe0004000
    1298:	3fffc034 	.word	0x3fffc034
    129c:	40000000 	.word	0x40000000
    12a0:	3fffc03c 	.word	0x3fffc03c
    12a4:	40000548 	.word	0x40000548
    12a8:	3fffc038 	.word	0x3fffc038
    12ac:	40000434 	.word	0x40000434
    12b0:	000029c1 	.word	0x000029c1
    12b4:	000029d2 	.word	0x000029d2
    12b8:	0000270f 	.word	0x0000270f
    12bc:	000003e7 	.word	0x000003e7
    12c0:	40000546 	.word	0x40000546
    12c4:	ffffdc05 	.word	0xffffdc05
    12c8:	cccccccd 	.word	0xcccccccd
    12cc:	4090a4cc 	.word	0x4090a4cc
    12d0:	ffffe86b 	.word	0xffffe86b
    12d4:	ba4bc0c9 	.word	0xba4bc0c9
    12d8:	3fe95e77 	.word	0x3fe95e77
    12dc:	00001001 	.word	0x00001001
    12e0:	ffffff00 	.word	0xffffff00

000012e4 <atoi>:
    12e4:	b508      	push	{r3, lr}
    12e6:	2100      	movs	r1, #0
    12e8:	220a      	movs	r2, #10
    12ea:	f000 f9dd 	bl	16a8 <strtol>
    12ee:	bc08      	pop	{r3}
    12f0:	bc02      	pop	{r1}
    12f2:	4708      	bx	r1

000012f4 <__itoa>:
    12f4:	1e93      	subs	r3, r2, #2
    12f6:	b510      	push	{r4, lr}
    12f8:	2b22      	cmp	r3, #34	; 0x22
    12fa:	d811      	bhi.n	1320 <__itoa+0x2c>
    12fc:	2a0a      	cmp	r2, #10
    12fe:	d10d      	bne.n	131c <__itoa+0x28>
    1300:	2800      	cmp	r0, #0
    1302:	da0b      	bge.n	131c <__itoa+0x28>
    1304:	232d      	movs	r3, #45	; 0x2d
    1306:	4240      	negs	r0, r0
    1308:	700b      	strb	r3, [r1, #0]
    130a:	3b2c      	subs	r3, #44	; 0x2c
    130c:	1c0c      	adds	r4, r1, #0
    130e:	18c9      	adds	r1, r1, r3
    1310:	f000 f9da 	bl	16c8 <__utoa>
    1314:	1c20      	adds	r0, r4, #0
    1316:	bc10      	pop	{r4}
    1318:	bc02      	pop	{r1}
    131a:	4708      	bx	r1
    131c:	2300      	movs	r3, #0
    131e:	e7f5      	b.n	130c <__itoa+0x18>
    1320:	2300      	movs	r3, #0
    1322:	2000      	movs	r0, #0
    1324:	700b      	strb	r3, [r1, #0]
    1326:	e7f6      	b.n	1316 <__itoa+0x22>

00001328 <itoa>:
    1328:	b508      	push	{r3, lr}
    132a:	f7ff ffe3 	bl	12f4 <__itoa>
    132e:	bc08      	pop	{r3}
    1330:	bc02      	pop	{r1}
    1332:	4708      	bx	r1

00001334 <memset>:
    1334:	b570      	push	{r4, r5, r6, lr}
    1336:	0783      	lsls	r3, r0, #30
    1338:	d043      	beq.n	13c2 <memset+0x8e>
    133a:	1e54      	subs	r4, r2, #1
    133c:	2a00      	cmp	r2, #0
    133e:	d03d      	beq.n	13bc <memset+0x88>
    1340:	060d      	lsls	r5, r1, #24
    1342:	0e2d      	lsrs	r5, r5, #24
    1344:	1c03      	adds	r3, r0, #0
    1346:	2603      	movs	r6, #3
    1348:	e003      	b.n	1352 <memset+0x1e>
    134a:	1e62      	subs	r2, r4, #1
    134c:	2c00      	cmp	r4, #0
    134e:	d035      	beq.n	13bc <memset+0x88>
    1350:	1c14      	adds	r4, r2, #0
    1352:	3301      	adds	r3, #1
    1354:	1e5a      	subs	r2, r3, #1
    1356:	7015      	strb	r5, [r2, #0]
    1358:	4233      	tst	r3, r6
    135a:	d1f6      	bne.n	134a <memset+0x16>
    135c:	2c03      	cmp	r4, #3
    135e:	d924      	bls.n	13aa <memset+0x76>
    1360:	25ff      	movs	r5, #255	; 0xff
    1362:	400d      	ands	r5, r1
    1364:	022a      	lsls	r2, r5, #8
    1366:	4315      	orrs	r5, r2
    1368:	042a      	lsls	r2, r5, #16
    136a:	4315      	orrs	r5, r2
    136c:	2c0f      	cmp	r4, #15
    136e:	d911      	bls.n	1394 <memset+0x60>
    1370:	1c26      	adds	r6, r4, #0
    1372:	3e10      	subs	r6, #16
    1374:	0936      	lsrs	r6, r6, #4
    1376:	3601      	adds	r6, #1
    1378:	0136      	lsls	r6, r6, #4
    137a:	1c1a      	adds	r2, r3, #0
    137c:	199b      	adds	r3, r3, r6
    137e:	6015      	str	r5, [r2, #0]
    1380:	6055      	str	r5, [r2, #4]
    1382:	6095      	str	r5, [r2, #8]
    1384:	60d5      	str	r5, [r2, #12]
    1386:	3210      	adds	r2, #16
    1388:	4293      	cmp	r3, r2
    138a:	d1f8      	bne.n	137e <memset+0x4a>
    138c:	220f      	movs	r2, #15
    138e:	4014      	ands	r4, r2
    1390:	2c03      	cmp	r4, #3
    1392:	d90a      	bls.n	13aa <memset+0x76>
    1394:	1f26      	subs	r6, r4, #4
    1396:	08b6      	lsrs	r6, r6, #2
    1398:	3601      	adds	r6, #1
    139a:	00b6      	lsls	r6, r6, #2
    139c:	1c1a      	adds	r2, r3, #0
    139e:	199b      	adds	r3, r3, r6
    13a0:	c220      	stmia	r2!, {r5}
    13a2:	4293      	cmp	r3, r2
    13a4:	d1fc      	bne.n	13a0 <memset+0x6c>
    13a6:	2203      	movs	r2, #3
    13a8:	4014      	ands	r4, r2
    13aa:	2c00      	cmp	r4, #0
    13ac:	d006      	beq.n	13bc <memset+0x88>
    13ae:	0609      	lsls	r1, r1, #24
    13b0:	191c      	adds	r4, r3, r4
    13b2:	0e09      	lsrs	r1, r1, #24
    13b4:	7019      	strb	r1, [r3, #0]
    13b6:	3301      	adds	r3, #1
    13b8:	42a3      	cmp	r3, r4
    13ba:	d1fb      	bne.n	13b4 <memset+0x80>
    13bc:	bc70      	pop	{r4, r5, r6}
    13be:	bc02      	pop	{r1}
    13c0:	4708      	bx	r1
    13c2:	1c14      	adds	r4, r2, #0
    13c4:	1c03      	adds	r3, r0, #0
    13c6:	e7c9      	b.n	135c <memset+0x28>

000013c8 <strcat>:
    13c8:	b538      	push	{r3, r4, r5, lr}
    13ca:	1c05      	adds	r5, r0, #0
    13cc:	07ab      	lsls	r3, r5, #30
    13ce:	d116      	bne.n	13fe <strcat+0x36>
    13d0:	682a      	ldr	r2, [r5, #0]
    13d2:	4b10      	ldr	r3, [pc, #64]	; (1414 <strcat+0x4c>)
    13d4:	4c10      	ldr	r4, [pc, #64]	; (1418 <strcat+0x50>)
    13d6:	18d3      	adds	r3, r2, r3
    13d8:	4393      	bics	r3, r2
    13da:	4223      	tst	r3, r4
    13dc:	d118      	bne.n	1410 <strcat+0x48>
    13de:	3004      	adds	r0, #4
    13e0:	6802      	ldr	r2, [r0, #0]
    13e2:	4b0c      	ldr	r3, [pc, #48]	; (1414 <strcat+0x4c>)
    13e4:	18d3      	adds	r3, r2, r3
    13e6:	4393      	bics	r3, r2
    13e8:	4223      	tst	r3, r4
    13ea:	d108      	bne.n	13fe <strcat+0x36>
    13ec:	3004      	adds	r0, #4
    13ee:	6802      	ldr	r2, [r0, #0]
    13f0:	4b08      	ldr	r3, [pc, #32]	; (1414 <strcat+0x4c>)
    13f2:	18d3      	adds	r3, r2, r3
    13f4:	4393      	bics	r3, r2
    13f6:	4223      	tst	r3, r4
    13f8:	d0f1      	beq.n	13de <strcat+0x16>
    13fa:	e000      	b.n	13fe <strcat+0x36>
    13fc:	3001      	adds	r0, #1
    13fe:	7803      	ldrb	r3, [r0, #0]
    1400:	2b00      	cmp	r3, #0
    1402:	d1fb      	bne.n	13fc <strcat+0x34>
    1404:	f000 f80a 	bl	141c <strcpy>
    1408:	1c28      	adds	r0, r5, #0
    140a:	bc38      	pop	{r3, r4, r5}
    140c:	bc02      	pop	{r1}
    140e:	4708      	bx	r1
    1410:	1c28      	adds	r0, r5, #0
    1412:	e7f4      	b.n	13fe <strcat+0x36>
    1414:	fefefeff 	.word	0xfefefeff
    1418:	80808080 	.word	0x80808080

0000141c <strcpy>:
    141c:	1c03      	adds	r3, r0, #0
    141e:	780a      	ldrb	r2, [r1, #0]
    1420:	3101      	adds	r1, #1
    1422:	701a      	strb	r2, [r3, #0]
    1424:	3301      	adds	r3, #1
    1426:	2a00      	cmp	r2, #0
    1428:	d1f9      	bne.n	141e <strcpy+0x2>
    142a:	4770      	bx	lr

0000142c <strlen>:
    142c:	b510      	push	{r4, lr}
    142e:	0783      	lsls	r3, r0, #30
    1430:	d029      	beq.n	1486 <strlen+0x5a>
    1432:	7803      	ldrb	r3, [r0, #0]
    1434:	2b00      	cmp	r3, #0
    1436:	d028      	beq.n	148a <strlen+0x5e>
    1438:	1c03      	adds	r3, r0, #0
    143a:	2103      	movs	r1, #3
    143c:	e002      	b.n	1444 <strlen+0x18>
    143e:	781a      	ldrb	r2, [r3, #0]
    1440:	2a00      	cmp	r2, #0
    1442:	d01c      	beq.n	147e <strlen+0x52>
    1444:	3301      	adds	r3, #1
    1446:	420b      	tst	r3, r1
    1448:	d1f9      	bne.n	143e <strlen+0x12>
    144a:	6819      	ldr	r1, [r3, #0]
    144c:	4a10      	ldr	r2, [pc, #64]	; (1490 <strlen+0x64>)
    144e:	4c11      	ldr	r4, [pc, #68]	; (1494 <strlen+0x68>)
    1450:	188a      	adds	r2, r1, r2
    1452:	438a      	bics	r2, r1
    1454:	4222      	tst	r2, r4
    1456:	d10f      	bne.n	1478 <strlen+0x4c>
    1458:	3304      	adds	r3, #4
    145a:	6819      	ldr	r1, [r3, #0]
    145c:	4a0c      	ldr	r2, [pc, #48]	; (1490 <strlen+0x64>)
    145e:	188a      	adds	r2, r1, r2
    1460:	438a      	bics	r2, r1
    1462:	4222      	tst	r2, r4
    1464:	d108      	bne.n	1478 <strlen+0x4c>
    1466:	3304      	adds	r3, #4
    1468:	6819      	ldr	r1, [r3, #0]
    146a:	4a09      	ldr	r2, [pc, #36]	; (1490 <strlen+0x64>)
    146c:	188a      	adds	r2, r1, r2
    146e:	438a      	bics	r2, r1
    1470:	4222      	tst	r2, r4
    1472:	d0f1      	beq.n	1458 <strlen+0x2c>
    1474:	e000      	b.n	1478 <strlen+0x4c>
    1476:	3301      	adds	r3, #1
    1478:	781a      	ldrb	r2, [r3, #0]
    147a:	2a00      	cmp	r2, #0
    147c:	d1fb      	bne.n	1476 <strlen+0x4a>
    147e:	1a18      	subs	r0, r3, r0
    1480:	bc10      	pop	{r4}
    1482:	bc02      	pop	{r1}
    1484:	4708      	bx	r1
    1486:	1c03      	adds	r3, r0, #0
    1488:	e7df      	b.n	144a <strlen+0x1e>
    148a:	2000      	movs	r0, #0
    148c:	e7f8      	b.n	1480 <strlen+0x54>
    148e:	46c0      	nop			; (mov r8, r8)
    1490:	fefefeff 	.word	0xfefefeff
    1494:	80808080 	.word	0x80808080

00001498 <strncmp>:
    1498:	1c03      	adds	r3, r0, #0
    149a:	b530      	push	{r4, r5, lr}
    149c:	2000      	movs	r0, #0
    149e:	2a00      	cmp	r2, #0
    14a0:	d03a      	beq.n	1518 <strncmp+0x80>
    14a2:	1c1c      	adds	r4, r3, #0
    14a4:	430c      	orrs	r4, r1
    14a6:	07a4      	lsls	r4, r4, #30
    14a8:	d120      	bne.n	14ec <strncmp+0x54>
    14aa:	2a03      	cmp	r2, #3
    14ac:	d91e      	bls.n	14ec <strncmp+0x54>
    14ae:	681c      	ldr	r4, [r3, #0]
    14b0:	680d      	ldr	r5, [r1, #0]
    14b2:	42ac      	cmp	r4, r5
    14b4:	d11a      	bne.n	14ec <strncmp+0x54>
    14b6:	3a04      	subs	r2, #4
    14b8:	2a00      	cmp	r2, #0
    14ba:	d02d      	beq.n	1518 <strncmp+0x80>
    14bc:	4d1a      	ldr	r5, [pc, #104]	; (1528 <strncmp+0x90>)
    14be:	1965      	adds	r5, r4, r5
    14c0:	43a5      	bics	r5, r4
    14c2:	1c2c      	adds	r4, r5, #0
    14c4:	4d19      	ldr	r5, [pc, #100]	; (152c <strncmp+0x94>)
    14c6:	422c      	tst	r4, r5
    14c8:	d00c      	beq.n	14e4 <strncmp+0x4c>
    14ca:	e025      	b.n	1518 <strncmp+0x80>
    14cc:	6818      	ldr	r0, [r3, #0]
    14ce:	680c      	ldr	r4, [r1, #0]
    14d0:	42a0      	cmp	r0, r4
    14d2:	d10b      	bne.n	14ec <strncmp+0x54>
    14d4:	3a04      	subs	r2, #4
    14d6:	2a00      	cmp	r2, #0
    14d8:	d021      	beq.n	151e <strncmp+0x86>
    14da:	4c13      	ldr	r4, [pc, #76]	; (1528 <strncmp+0x90>)
    14dc:	1904      	adds	r4, r0, r4
    14de:	4384      	bics	r4, r0
    14e0:	422c      	tst	r4, r5
    14e2:	d11c      	bne.n	151e <strncmp+0x86>
    14e4:	3304      	adds	r3, #4
    14e6:	3104      	adds	r1, #4
    14e8:	2a03      	cmp	r2, #3
    14ea:	d8ef      	bhi.n	14cc <strncmp+0x34>
    14ec:	781d      	ldrb	r5, [r3, #0]
    14ee:	7808      	ldrb	r0, [r1, #0]
    14f0:	3a01      	subs	r2, #1
    14f2:	4285      	cmp	r5, r0
    14f4:	d115      	bne.n	1522 <strncmp+0x8a>
    14f6:	2a00      	cmp	r2, #0
    14f8:	d011      	beq.n	151e <strncmp+0x86>
    14fa:	2d00      	cmp	r5, #0
    14fc:	d104      	bne.n	1508 <strncmp+0x70>
    14fe:	e00e      	b.n	151e <strncmp+0x86>
    1500:	2c00      	cmp	r4, #0
    1502:	d00c      	beq.n	151e <strncmp+0x86>
    1504:	2a00      	cmp	r2, #0
    1506:	d00a      	beq.n	151e <strncmp+0x86>
    1508:	3301      	adds	r3, #1
    150a:	3101      	adds	r1, #1
    150c:	781c      	ldrb	r4, [r3, #0]
    150e:	7808      	ldrb	r0, [r1, #0]
    1510:	3a01      	subs	r2, #1
    1512:	4284      	cmp	r4, r0
    1514:	d0f4      	beq.n	1500 <strncmp+0x68>
    1516:	1a20      	subs	r0, r4, r0
    1518:	bc30      	pop	{r4, r5}
    151a:	bc02      	pop	{r1}
    151c:	4708      	bx	r1
    151e:	2000      	movs	r0, #0
    1520:	e7fa      	b.n	1518 <strncmp+0x80>
    1522:	1c2c      	adds	r4, r5, #0
    1524:	1a20      	subs	r0, r4, r0
    1526:	e7f7      	b.n	1518 <strncmp+0x80>
    1528:	fefefeff 	.word	0xfefefeff
    152c:	80808080 	.word	0x80808080

00001530 <_strtol_r>:
    1530:	b5f0      	push	{r4, r5, r6, r7, lr}
    1532:	464d      	mov	r5, r9
    1534:	4656      	mov	r6, sl
    1536:	465f      	mov	r7, fp
    1538:	4644      	mov	r4, r8
    153a:	b4f0      	push	{r4, r5, r6, r7}
    153c:	1c1e      	adds	r6, r3, #0
    153e:	4b58      	ldr	r3, [pc, #352]	; (16a0 <_strtol_r+0x170>)
    1540:	b085      	sub	sp, #20
    1542:	9102      	str	r1, [sp, #8]
    1544:	681d      	ldr	r5, [r3, #0]
    1546:	9003      	str	r0, [sp, #12]
    1548:	1c0b      	adds	r3, r1, #0
    154a:	4691      	mov	r9, r2
    154c:	2108      	movs	r1, #8
    154e:	e000      	b.n	1552 <_strtol_r+0x22>
    1550:	1c3b      	adds	r3, r7, #0
    1552:	781c      	ldrb	r4, [r3, #0]
    1554:	192a      	adds	r2, r5, r4
    1556:	7852      	ldrb	r2, [r2, #1]
    1558:	1c5f      	adds	r7, r3, #1
    155a:	4211      	tst	r1, r2
    155c:	d1f8      	bne.n	1550 <_strtol_r+0x20>
    155e:	2c2d      	cmp	r4, #45	; 0x2d
    1560:	d100      	bne.n	1564 <_strtol_r+0x34>
    1562:	e072      	b.n	164a <_strtol_r+0x11a>
    1564:	2200      	movs	r2, #0
    1566:	9201      	str	r2, [sp, #4]
    1568:	2c2b      	cmp	r4, #43	; 0x2b
    156a:	d100      	bne.n	156e <_strtol_r+0x3e>
    156c:	e07f      	b.n	166e <_strtol_r+0x13e>
    156e:	2310      	movs	r3, #16
    1570:	1c32      	adds	r2, r6, #0
    1572:	46b0      	mov	r8, r6
    1574:	439a      	bics	r2, r3
    1576:	d10a      	bne.n	158e <_strtol_r+0x5e>
    1578:	4273      	negs	r3, r6
    157a:	4173      	adcs	r3, r6
    157c:	2c30      	cmp	r4, #48	; 0x30
    157e:	d100      	bne.n	1582 <_strtol_r+0x52>
    1580:	e078      	b.n	1674 <_strtol_r+0x144>
    1582:	2b00      	cmp	r3, #0
    1584:	d100      	bne.n	1588 <_strtol_r+0x58>
    1586:	e088      	b.n	169a <_strtol_r+0x16a>
    1588:	230a      	movs	r3, #10
    158a:	260a      	movs	r6, #10
    158c:	4698      	mov	r8, r3
    158e:	4a45      	ldr	r2, [pc, #276]	; (16a4 <_strtol_r+0x174>)
    1590:	4694      	mov	ip, r2
    1592:	9b01      	ldr	r3, [sp, #4]
    1594:	4463      	add	r3, ip
    1596:	1c18      	adds	r0, r3, #0
    1598:	4641      	mov	r1, r8
    159a:	469a      	mov	sl, r3
    159c:	f001 f966 	bl	286c <____aeabi_uidivmod_from_thumb>
    15a0:	4650      	mov	r0, sl
    15a2:	468b      	mov	fp, r1
    15a4:	4641      	mov	r1, r8
    15a6:	f001 f975 	bl	2894 <____aeabi_uidiv_from_thumb>
    15aa:	2204      	movs	r2, #4
    15ac:	4684      	mov	ip, r0
    15ae:	4692      	mov	sl, r2
    15b0:	1c32      	adds	r2, r6, #0
    15b2:	1c3b      	adds	r3, r7, #0
    15b4:	1c2e      	adds	r6, r5, #0
    15b6:	2000      	movs	r0, #0
    15b8:	4665      	mov	r5, ip
    15ba:	2100      	movs	r1, #0
    15bc:	4694      	mov	ip, r2
    15be:	e012      	b.n	15e6 <_strtol_r+0xb6>
    15c0:	3c30      	subs	r4, #48	; 0x30
    15c2:	45a4      	cmp	ip, r4
    15c4:	dd1d      	ble.n	1602 <_strtol_r+0xd2>
    15c6:	2800      	cmp	r0, #0
    15c8:	db09      	blt.n	15de <_strtol_r+0xae>
    15ca:	428d      	cmp	r5, r1
    15cc:	d307      	bcc.n	15de <_strtol_r+0xae>
    15ce:	2201      	movs	r2, #1
    15d0:	455c      	cmp	r4, fp
    15d2:	dc00      	bgt.n	15d6 <_strtol_r+0xa6>
    15d4:	2200      	movs	r2, #0
    15d6:	0612      	lsls	r2, r2, #24
    15d8:	d02c      	beq.n	1634 <_strtol_r+0x104>
    15da:	42a9      	cmp	r1, r5
    15dc:	d12a      	bne.n	1634 <_strtol_r+0x104>
    15de:	2001      	movs	r0, #1
    15e0:	4240      	negs	r0, r0
    15e2:	781c      	ldrb	r4, [r3, #0]
    15e4:	3301      	adds	r3, #1
    15e6:	4657      	mov	r7, sl
    15e8:	1932      	adds	r2, r6, r4
    15ea:	7852      	ldrb	r2, [r2, #1]
    15ec:	4217      	tst	r7, r2
    15ee:	d1e7      	bne.n	15c0 <_strtol_r+0x90>
    15f0:	2703      	movs	r7, #3
    15f2:	403a      	ands	r2, r7
    15f4:	d005      	beq.n	1602 <_strtol_r+0xd2>
    15f6:	2a01      	cmp	r2, #1
    15f8:	d021      	beq.n	163e <_strtol_r+0x10e>
    15fa:	2257      	movs	r2, #87	; 0x57
    15fc:	1aa4      	subs	r4, r4, r2
    15fe:	45a4      	cmp	ip, r4
    1600:	dce1      	bgt.n	15c6 <_strtol_r+0x96>
    1602:	1c42      	adds	r2, r0, #1
    1604:	d026      	beq.n	1654 <_strtol_r+0x124>
    1606:	9c01      	ldr	r4, [sp, #4]
    1608:	4262      	negs	r2, r4
    160a:	4051      	eors	r1, r2
    160c:	46a4      	mov	ip, r4
    160e:	464a      	mov	r2, r9
    1610:	4461      	add	r1, ip
    1612:	2a00      	cmp	r2, #0
    1614:	d039      	beq.n	168a <_strtol_r+0x15a>
    1616:	2800      	cmp	r0, #0
    1618:	d114      	bne.n	1644 <_strtol_r+0x114>
    161a:	1c08      	adds	r0, r1, #0
    161c:	9b02      	ldr	r3, [sp, #8]
    161e:	464a      	mov	r2, r9
    1620:	6013      	str	r3, [r2, #0]
    1622:	b005      	add	sp, #20
    1624:	bc3c      	pop	{r2, r3, r4, r5}
    1626:	4690      	mov	r8, r2
    1628:	4699      	mov	r9, r3
    162a:	46a2      	mov	sl, r4
    162c:	46ab      	mov	fp, r5
    162e:	bcf0      	pop	{r4, r5, r6, r7}
    1630:	bc02      	pop	{r1}
    1632:	4708      	bx	r1
    1634:	4642      	mov	r2, r8
    1636:	434a      	muls	r2, r1
    1638:	2001      	movs	r0, #1
    163a:	18a1      	adds	r1, r4, r2
    163c:	e7d1      	b.n	15e2 <_strtol_r+0xb2>
    163e:	2237      	movs	r2, #55	; 0x37
    1640:	1aa4      	subs	r4, r4, r2
    1642:	e7dc      	b.n	15fe <_strtol_r+0xce>
    1644:	1c08      	adds	r0, r1, #0
    1646:	3b01      	subs	r3, #1
    1648:	e7e9      	b.n	161e <_strtol_r+0xee>
    164a:	1c9f      	adds	r7, r3, #2
    164c:	785c      	ldrb	r4, [r3, #1]
    164e:	2301      	movs	r3, #1
    1650:	9301      	str	r3, [sp, #4]
    1652:	e78c      	b.n	156e <_strtol_r+0x3e>
    1654:	4913      	ldr	r1, [pc, #76]	; (16a4 <_strtol_r+0x174>)
    1656:	468c      	mov	ip, r1
    1658:	9a01      	ldr	r2, [sp, #4]
    165a:	4462      	add	r2, ip
    165c:	1c10      	adds	r0, r2, #0
    165e:	2222      	movs	r2, #34	; 0x22
    1660:	9903      	ldr	r1, [sp, #12]
    1662:	600a      	str	r2, [r1, #0]
    1664:	464a      	mov	r2, r9
    1666:	2a00      	cmp	r2, #0
    1668:	d0db      	beq.n	1622 <_strtol_r+0xf2>
    166a:	3b01      	subs	r3, #1
    166c:	e7d7      	b.n	161e <_strtol_r+0xee>
    166e:	1c9f      	adds	r7, r3, #2
    1670:	785c      	ldrb	r4, [r3, #1]
    1672:	e77c      	b.n	156e <_strtol_r+0x3e>
    1674:	2120      	movs	r1, #32
    1676:	783a      	ldrb	r2, [r7, #0]
    1678:	438a      	bics	r2, r1
    167a:	2a58      	cmp	r2, #88	; 0x58
    167c:	d107      	bne.n	168e <_strtol_r+0x15e>
    167e:	2310      	movs	r3, #16
    1680:	787c      	ldrb	r4, [r7, #1]
    1682:	4698      	mov	r8, r3
    1684:	3702      	adds	r7, #2
    1686:	2610      	movs	r6, #16
    1688:	e781      	b.n	158e <_strtol_r+0x5e>
    168a:	1c08      	adds	r0, r1, #0
    168c:	e7c9      	b.n	1622 <_strtol_r+0xf2>
    168e:	2b00      	cmp	r3, #0
    1690:	d003      	beq.n	169a <_strtol_r+0x16a>
    1692:	2308      	movs	r3, #8
    1694:	2608      	movs	r6, #8
    1696:	4698      	mov	r8, r3
    1698:	e779      	b.n	158e <_strtol_r+0x5e>
    169a:	46b0      	mov	r8, r6
    169c:	e777      	b.n	158e <_strtol_r+0x5e>
    169e:	46c0      	nop			; (mov r8, r8)
    16a0:	40000004 	.word	0x40000004
    16a4:	7fffffff 	.word	0x7fffffff

000016a8 <strtol>:
    16a8:	b538      	push	{r3, r4, r5, lr}
    16aa:	1c05      	adds	r5, r0, #0
    16ac:	1c0c      	adds	r4, r1, #0
    16ae:	1c13      	adds	r3, r2, #0
    16b0:	4a04      	ldr	r2, [pc, #16]	; (16c4 <strtol+0x1c>)
    16b2:	1c29      	adds	r1, r5, #0
    16b4:	6810      	ldr	r0, [r2, #0]
    16b6:	1c22      	adds	r2, r4, #0
    16b8:	f7ff ff3a 	bl	1530 <_strtol_r>
    16bc:	bc38      	pop	{r3, r4, r5}
    16be:	bc02      	pop	{r1}
    16c0:	4708      	bx	r1
    16c2:	46c0      	nop			; (mov r8, r8)
    16c4:	40000430 	.word	0x40000430

000016c8 <__utoa>:
    16c8:	b5f0      	push	{r4, r5, r6, r7, lr}
    16ca:	4657      	mov	r7, sl
    16cc:	4645      	mov	r5, r8
    16ce:	464e      	mov	r6, r9
    16d0:	b4e0      	push	{r5, r6, r7}
    16d2:	b08a      	sub	sp, #40	; 0x28
    16d4:	4690      	mov	r8, r2
    16d6:	466a      	mov	r2, sp
    16d8:	4b1e      	ldr	r3, [pc, #120]	; (1754 <__utoa+0x8c>)
    16da:	1c0d      	adds	r5, r1, #0
    16dc:	1c06      	adds	r6, r0, #0
    16de:	cb13      	ldmia	r3!, {r0, r1, r4}
    16e0:	c213      	stmia	r2!, {r0, r1, r4}
    16e2:	cb13      	ldmia	r3!, {r0, r1, r4}
    16e4:	c213      	stmia	r2!, {r0, r1, r4}
    16e6:	cb13      	ldmia	r3!, {r0, r1, r4}
    16e8:	c213      	stmia	r2!, {r0, r1, r4}
    16ea:	781b      	ldrb	r3, [r3, #0]
    16ec:	7013      	strb	r3, [r2, #0]
    16ee:	4643      	mov	r3, r8
    16f0:	3b02      	subs	r3, #2
    16f2:	46ea      	mov	sl, sp
    16f4:	1c2f      	adds	r7, r5, #0
    16f6:	2400      	movs	r4, #0
    16f8:	2b22      	cmp	r3, #34	; 0x22
    16fa:	d901      	bls.n	1700 <__utoa+0x38>
    16fc:	e026      	b.n	174c <__utoa+0x84>
    16fe:	464c      	mov	r4, r9
    1700:	1c63      	adds	r3, r4, #1
    1702:	1c30      	adds	r0, r6, #0
    1704:	4641      	mov	r1, r8
    1706:	4699      	mov	r9, r3
    1708:	f001 f8b0 	bl	286c <____aeabi_uidivmod_from_thumb>
    170c:	4653      	mov	r3, sl
    170e:	5c5b      	ldrb	r3, [r3, r1]
    1710:	1c30      	adds	r0, r6, #0
    1712:	703b      	strb	r3, [r7, #0]
    1714:	4641      	mov	r1, r8
    1716:	f001 f8bd 	bl	2894 <____aeabi_uidiv_from_thumb>
    171a:	3701      	adds	r7, #1
    171c:	1e06      	subs	r6, r0, #0
    171e:	d1ee      	bne.n	16fe <__utoa+0x36>
    1720:	464b      	mov	r3, r9
    1722:	54e8      	strb	r0, [r5, r3]
    1724:	2300      	movs	r3, #0
    1726:	2c00      	cmp	r4, #0
    1728:	d007      	beq.n	173a <__utoa+0x72>
    172a:	5cea      	ldrb	r2, [r5, r3]
    172c:	5d29      	ldrb	r1, [r5, r4]
    172e:	54e9      	strb	r1, [r5, r3]
    1730:	552a      	strb	r2, [r5, r4]
    1732:	3301      	adds	r3, #1
    1734:	3c01      	subs	r4, #1
    1736:	42a3      	cmp	r3, r4
    1738:	dbf7      	blt.n	172a <__utoa+0x62>
    173a:	1c28      	adds	r0, r5, #0
    173c:	b00a      	add	sp, #40	; 0x28
    173e:	bc1c      	pop	{r2, r3, r4}
    1740:	4690      	mov	r8, r2
    1742:	4699      	mov	r9, r3
    1744:	46a2      	mov	sl, r4
    1746:	bcf0      	pop	{r4, r5, r6, r7}
    1748:	bc02      	pop	{r1}
    174a:	4708      	bx	r1
    174c:	702c      	strb	r4, [r5, #0]
    174e:	2000      	movs	r0, #0
    1750:	e7f4      	b.n	173c <__utoa+0x74>
    1752:	46c0      	nop			; (mov r8, r8)
    1754:	000029e4 	.word	0x000029e4

00001758 <__aeabi_uidiv>:
    1758:	e2512001 	subs	r2, r1, #1
    175c:	012fff1e 	bxeq	lr
    1760:	3a000036 	bcc	1840 <__aeabi_uidiv+0xe8>
    1764:	e1500001 	cmp	r0, r1
    1768:	9a000022 	bls	17f8 <__aeabi_uidiv+0xa0>
    176c:	e1110002 	tst	r1, r2
    1770:	0a000023 	beq	1804 <__aeabi_uidiv+0xac>
    1774:	e311020e 	tst	r1, #-536870912	; 0xe0000000
    1778:	01a01181 	lsleq	r1, r1, #3
    177c:	03a03008 	moveq	r3, #8
    1780:	13a03001 	movne	r3, #1
    1784:	e3510201 	cmp	r1, #268435456	; 0x10000000
    1788:	31510000 	cmpcc	r1, r0
    178c:	31a01201 	lslcc	r1, r1, #4
    1790:	31a03203 	lslcc	r3, r3, #4
    1794:	3afffffa 	bcc	1784 <__aeabi_uidiv+0x2c>
    1798:	e3510102 	cmp	r1, #-2147483648	; 0x80000000
    179c:	31510000 	cmpcc	r1, r0
    17a0:	31a01081 	lslcc	r1, r1, #1
    17a4:	31a03083 	lslcc	r3, r3, #1
    17a8:	3afffffa 	bcc	1798 <__aeabi_uidiv+0x40>
    17ac:	e3a02000 	mov	r2, #0
    17b0:	e1500001 	cmp	r0, r1
    17b4:	20400001 	subcs	r0, r0, r1
    17b8:	21822003 	orrcs	r2, r2, r3
    17bc:	e15000a1 	cmp	r0, r1, lsr #1
    17c0:	204000a1 	subcs	r0, r0, r1, lsr #1
    17c4:	218220a3 	orrcs	r2, r2, r3, lsr #1
    17c8:	e1500121 	cmp	r0, r1, lsr #2
    17cc:	20400121 	subcs	r0, r0, r1, lsr #2
    17d0:	21822123 	orrcs	r2, r2, r3, lsr #2
    17d4:	e15001a1 	cmp	r0, r1, lsr #3
    17d8:	204001a1 	subcs	r0, r0, r1, lsr #3
    17dc:	218221a3 	orrcs	r2, r2, r3, lsr #3
    17e0:	e3500000 	cmp	r0, #0
    17e4:	11b03223 	lsrsne	r3, r3, #4
    17e8:	11a01221 	lsrne	r1, r1, #4
    17ec:	1affffef 	bne	17b0 <__aeabi_uidiv+0x58>
    17f0:	e1a00002 	mov	r0, r2
    17f4:	e12fff1e 	bx	lr
    17f8:	03a00001 	moveq	r0, #1
    17fc:	13a00000 	movne	r0, #0
    1800:	e12fff1e 	bx	lr
    1804:	e3510801 	cmp	r1, #65536	; 0x10000
    1808:	21a01821 	lsrcs	r1, r1, #16
    180c:	23a02010 	movcs	r2, #16
    1810:	33a02000 	movcc	r2, #0
    1814:	e3510c01 	cmp	r1, #256	; 0x100
    1818:	21a01421 	lsrcs	r1, r1, #8
    181c:	22822008 	addcs	r2, r2, #8
    1820:	e3510010 	cmp	r1, #16
    1824:	21a01221 	lsrcs	r1, r1, #4
    1828:	22822004 	addcs	r2, r2, #4
    182c:	e3510004 	cmp	r1, #4
    1830:	82822003 	addhi	r2, r2, #3
    1834:	908220a1 	addls	r2, r2, r1, lsr #1
    1838:	e1a00230 	lsr	r0, r0, r2
    183c:	e12fff1e 	bx	lr
    1840:	e12fff1f 	bx	pc
    1844:	e1a00000 	nop			; (mov r0, r0)
    1848:	e3500000 	cmp	r0, #0
    184c:	13e00000 	mvnne	r0, #0
    1850:	ea0003fc 	b	2848 <____aeabi_idiv0_from_arm>

00001854 <__aeabi_uidivmod>:
    1854:	e3510000 	cmp	r1, #0
    1858:	0afffff8 	beq	1840 <__aeabi_uidiv+0xe8>
    185c:	e92d4003 	push	{r0, r1, lr}
    1860:	ebffffbc 	bl	1758 <__aeabi_uidiv>
    1864:	e8bd4006 	pop	{r1, r2, lr}
    1868:	e0030092 	mul	r3, r2, r0
    186c:	e0411003 	sub	r1, r1, r3
    1870:	e12fff1e 	bx	lr

00001874 <__aeabi_idiv0>:
    1874:	4770      	bx	lr
    1876:	46c0      	nop			; (mov r8, r8)

00001878 <__aeabi_drsub>:
    1878:	e2211102 	eor	r1, r1, #-2147483648	; 0x80000000
    187c:	ea000000 	b	1884 <__adddf3>

00001880 <__aeabi_dsub>:
    1880:	e2233102 	eor	r3, r3, #-2147483648	; 0x80000000

00001884 <__adddf3>:
    1884:	e92d4030 	push	{r4, r5, lr}
    1888:	e1a04081 	lsl	r4, r1, #1
    188c:	e1a05083 	lsl	r5, r3, #1
    1890:	e1340005 	teq	r4, r5
    1894:	01300002 	teqeq	r0, r2
    1898:	1194c000 	orrsne	ip, r4, r0
    189c:	1195c002 	orrsne	ip, r5, r2
    18a0:	11f0cac4 	mvnsne	ip, r4, asr #21
    18a4:	11f0cac5 	mvnsne	ip, r5, asr #21
    18a8:	0a00008c 	beq	1ae0 <__adddf3+0x25c>
    18ac:	e1a04aa4 	lsr	r4, r4, #21
    18b0:	e0745aa5 	rsbs	r5, r4, r5, lsr #21
    18b4:	b2655000 	rsblt	r5, r5, #0
    18b8:	da000006 	ble	18d8 <__adddf3+0x54>
    18bc:	e0844005 	add	r4, r4, r5
    18c0:	e0202002 	eor	r2, r0, r2
    18c4:	e0213003 	eor	r3, r1, r3
    18c8:	e0220000 	eor	r0, r2, r0
    18cc:	e0231001 	eor	r1, r3, r1
    18d0:	e0202002 	eor	r2, r0, r2
    18d4:	e0213003 	eor	r3, r1, r3
    18d8:	e3550036 	cmp	r5, #54	; 0x36
    18dc:	88bd4030 	pophi	{r4, r5, lr}
    18e0:	812fff1e 	bxhi	lr
    18e4:	e3110102 	tst	r1, #-2147483648	; 0x80000000
    18e8:	e1a01601 	lsl	r1, r1, #12
    18ec:	e3a0c601 	mov	ip, #1048576	; 0x100000
    18f0:	e18c1621 	orr	r1, ip, r1, lsr #12
    18f4:	0a000001 	beq	1900 <__adddf3+0x7c>
    18f8:	e2700000 	rsbs	r0, r0, #0
    18fc:	e2e11000 	rsc	r1, r1, #0
    1900:	e3130102 	tst	r3, #-2147483648	; 0x80000000
    1904:	e1a03603 	lsl	r3, r3, #12
    1908:	e18c3623 	orr	r3, ip, r3, lsr #12
    190c:	0a000001 	beq	1918 <__adddf3+0x94>
    1910:	e2722000 	rsbs	r2, r2, #0
    1914:	e2e33000 	rsc	r3, r3, #0
    1918:	e1340005 	teq	r4, r5
    191c:	0a000069 	beq	1ac8 <__adddf3+0x244>
    1920:	e2444001 	sub	r4, r4, #1
    1924:	e275e020 	rsbs	lr, r5, #32
    1928:	ba000005 	blt	1944 <__adddf3+0xc0>
    192c:	e1a0ce12 	lsl	ip, r2, lr
    1930:	e0900532 	adds	r0, r0, r2, lsr r5
    1934:	e2a11000 	adc	r1, r1, #0
    1938:	e0900e13 	adds	r0, r0, r3, lsl lr
    193c:	e0b11553 	adcs	r1, r1, r3, asr r5
    1940:	ea000006 	b	1960 <__adddf3+0xdc>
    1944:	e2455020 	sub	r5, r5, #32
    1948:	e28ee020 	add	lr, lr, #32
    194c:	e3520001 	cmp	r2, #1
    1950:	e1a0ce13 	lsl	ip, r3, lr
    1954:	238cc002 	orrcs	ip, ip, #2
    1958:	e0900553 	adds	r0, r0, r3, asr r5
    195c:	e0b11fc3 	adcs	r1, r1, r3, asr #31
    1960:	e2015102 	and	r5, r1, #-2147483648	; 0x80000000
    1964:	5a000002 	bpl	1974 <__adddf3+0xf0>
    1968:	e27cc000 	rsbs	ip, ip, #0
    196c:	e2f00000 	rscs	r0, r0, #0
    1970:	e2e11000 	rsc	r1, r1, #0
    1974:	e3510601 	cmp	r1, #1048576	; 0x100000
    1978:	3a00000f 	bcc	19bc <__adddf3+0x138>
    197c:	e3510602 	cmp	r1, #2097152	; 0x200000
    1980:	3a000006 	bcc	19a0 <__adddf3+0x11c>
    1984:	e1b010a1 	lsrs	r1, r1, #1
    1988:	e1b00060 	rrxs	r0, r0
    198c:	e1a0c06c 	rrx	ip, ip
    1990:	e2844001 	add	r4, r4, #1
    1994:	e1a02a84 	lsl	r2, r4, #21
    1998:	e3720501 	cmn	r2, #4194304	; 0x400000
    199c:	2a00006b 	bcs	1b50 <__adddf3+0x2cc>
    19a0:	e35c0102 	cmp	ip, #-2147483648	; 0x80000000
    19a4:	01b0c0a0 	lsrseq	ip, r0, #1
    19a8:	e2b00000 	adcs	r0, r0, #0
    19ac:	e0a11a04 	adc	r1, r1, r4, lsl #20
    19b0:	e1811005 	orr	r1, r1, r5
    19b4:	e8bd4030 	pop	{r4, r5, lr}
    19b8:	e12fff1e 	bx	lr
    19bc:	e1b0c08c 	lsls	ip, ip, #1
    19c0:	e0b00000 	adcs	r0, r0, r0
    19c4:	e0a11001 	adc	r1, r1, r1
    19c8:	e3110601 	tst	r1, #1048576	; 0x100000
    19cc:	e2444001 	sub	r4, r4, #1
    19d0:	1afffff2 	bne	19a0 <__adddf3+0x11c>
    19d4:	e3310000 	teq	r1, #0
    19d8:	13a03014 	movne	r3, #20
    19dc:	03a03034 	moveq	r3, #52	; 0x34
    19e0:	01a01000 	moveq	r1, r0
    19e4:	03a00000 	moveq	r0, #0
    19e8:	e1a02001 	mov	r2, r1
    19ec:	e3520801 	cmp	r2, #65536	; 0x10000
    19f0:	21a02822 	lsrcs	r2, r2, #16
    19f4:	22433010 	subcs	r3, r3, #16
    19f8:	e3520c01 	cmp	r2, #256	; 0x100
    19fc:	21a02422 	lsrcs	r2, r2, #8
    1a00:	22433008 	subcs	r3, r3, #8
    1a04:	e3520010 	cmp	r2, #16
    1a08:	21a02222 	lsrcs	r2, r2, #4
    1a0c:	22433004 	subcs	r3, r3, #4
    1a10:	e3520004 	cmp	r2, #4
    1a14:	22433002 	subcs	r3, r3, #2
    1a18:	304330a2 	subcc	r3, r3, r2, lsr #1
    1a1c:	e04331a2 	sub	r3, r3, r2, lsr #3
    1a20:	e2532020 	subs	r2, r3, #32
    1a24:	aa000007 	bge	1a48 <__adddf3+0x1c4>
    1a28:	e292200c 	adds	r2, r2, #12
    1a2c:	da000004 	ble	1a44 <__adddf3+0x1c0>
    1a30:	e282c014 	add	ip, r2, #20
    1a34:	e262200c 	rsb	r2, r2, #12
    1a38:	e1a00c11 	lsl	r0, r1, ip
    1a3c:	e1a01231 	lsr	r1, r1, r2
    1a40:	ea000004 	b	1a58 <__adddf3+0x1d4>
    1a44:	e2822014 	add	r2, r2, #20
    1a48:	d262c020 	rsble	ip, r2, #32
    1a4c:	e1a01211 	lsl	r1, r1, r2
    1a50:	d1811c30 	orrle	r1, r1, r0, lsr ip
    1a54:	d1a00210 	lslle	r0, r0, r2
    1a58:	e0544003 	subs	r4, r4, r3
    1a5c:	a0811a04 	addge	r1, r1, r4, lsl #20
    1a60:	a1811005 	orrge	r1, r1, r5
    1a64:	a8bd4030 	popge	{r4, r5, lr}
    1a68:	a12fff1e 	bxge	lr
    1a6c:	e1e04004 	mvn	r4, r4
    1a70:	e254401f 	subs	r4, r4, #31
    1a74:	aa00000f 	bge	1ab8 <__adddf3+0x234>
    1a78:	e294400c 	adds	r4, r4, #12
    1a7c:	ca000006 	bgt	1a9c <__adddf3+0x218>
    1a80:	e2844014 	add	r4, r4, #20
    1a84:	e2642020 	rsb	r2, r4, #32
    1a88:	e1a00430 	lsr	r0, r0, r4
    1a8c:	e1800211 	orr	r0, r0, r1, lsl r2
    1a90:	e1851431 	orr	r1, r5, r1, lsr r4
    1a94:	e8bd4030 	pop	{r4, r5, lr}
    1a98:	e12fff1e 	bx	lr
    1a9c:	e264400c 	rsb	r4, r4, #12
    1aa0:	e2642020 	rsb	r2, r4, #32
    1aa4:	e1a00230 	lsr	r0, r0, r2
    1aa8:	e1800411 	orr	r0, r0, r1, lsl r4
    1aac:	e1a01005 	mov	r1, r5
    1ab0:	e8bd4030 	pop	{r4, r5, lr}
    1ab4:	e12fff1e 	bx	lr
    1ab8:	e1a00431 	lsr	r0, r1, r4
    1abc:	e1a01005 	mov	r1, r5
    1ac0:	e8bd4030 	pop	{r4, r5, lr}
    1ac4:	e12fff1e 	bx	lr
    1ac8:	e3340000 	teq	r4, #0
    1acc:	e2233601 	eor	r3, r3, #1048576	; 0x100000
    1ad0:	02211601 	eoreq	r1, r1, #1048576	; 0x100000
    1ad4:	02844001 	addeq	r4, r4, #1
    1ad8:	12455001 	subne	r5, r5, #1
    1adc:	eaffff8f 	b	1920 <__adddf3+0x9c>
    1ae0:	e1f0cac4 	mvns	ip, r4, asr #21
    1ae4:	11f0cac5 	mvnsne	ip, r5, asr #21
    1ae8:	0a00001d 	beq	1b64 <__adddf3+0x2e0>
    1aec:	e1340005 	teq	r4, r5
    1af0:	01300002 	teqeq	r0, r2
    1af4:	0a000004 	beq	1b0c <__adddf3+0x288>
    1af8:	e194c000 	orrs	ip, r4, r0
    1afc:	01a01003 	moveq	r1, r3
    1b00:	01a00002 	moveq	r0, r2
    1b04:	e8bd4030 	pop	{r4, r5, lr}
    1b08:	e12fff1e 	bx	lr
    1b0c:	e1310003 	teq	r1, r3
    1b10:	13a01000 	movne	r1, #0
    1b14:	13a00000 	movne	r0, #0
    1b18:	18bd4030 	popne	{r4, r5, lr}
    1b1c:	112fff1e 	bxne	lr
    1b20:	e1b0caa4 	lsrs	ip, r4, #21
    1b24:	1a000004 	bne	1b3c <__adddf3+0x2b8>
    1b28:	e1b00080 	lsls	r0, r0, #1
    1b2c:	e0b11001 	adcs	r1, r1, r1
    1b30:	23811102 	orrcs	r1, r1, #-2147483648	; 0x80000000
    1b34:	e8bd4030 	pop	{r4, r5, lr}
    1b38:	e12fff1e 	bx	lr
    1b3c:	e2944501 	adds	r4, r4, #4194304	; 0x400000
    1b40:	32811601 	addcc	r1, r1, #1048576	; 0x100000
    1b44:	38bd4030 	popcc	{r4, r5, lr}
    1b48:	312fff1e 	bxcc	lr
    1b4c:	e2015102 	and	r5, r1, #-2147483648	; 0x80000000
    1b50:	e385147f 	orr	r1, r5, #2130706432	; 0x7f000000
    1b54:	e381160f 	orr	r1, r1, #15728640	; 0xf00000
    1b58:	e3a00000 	mov	r0, #0
    1b5c:	e8bd4030 	pop	{r4, r5, lr}
    1b60:	e12fff1e 	bx	lr
    1b64:	e1f0cac4 	mvns	ip, r4, asr #21
    1b68:	11a01003 	movne	r1, r3
    1b6c:	11a00002 	movne	r0, r2
    1b70:	01f0cac5 	mvnseq	ip, r5, asr #21
    1b74:	11a03001 	movne	r3, r1
    1b78:	11a02000 	movne	r2, r0
    1b7c:	e1904601 	orrs	r4, r0, r1, lsl #12
    1b80:	01925603 	orrseq	r5, r2, r3, lsl #12
    1b84:	01310003 	teqeq	r1, r3
    1b88:	13811702 	orrne	r1, r1, #524288	; 0x80000
    1b8c:	e8bd4030 	pop	{r4, r5, lr}
    1b90:	e12fff1e 	bx	lr

00001b94 <__aeabi_ui2d>:
    1b94:	e3300000 	teq	r0, #0
    1b98:	03a01000 	moveq	r1, #0
    1b9c:	012fff1e 	bxeq	lr
    1ba0:	e92d4030 	push	{r4, r5, lr}
    1ba4:	e3a04b01 	mov	r4, #1024	; 0x400
    1ba8:	e2844032 	add	r4, r4, #50	; 0x32
    1bac:	e3a05000 	mov	r5, #0
    1bb0:	e3a01000 	mov	r1, #0
    1bb4:	eaffff86 	b	19d4 <__adddf3+0x150>

00001bb8 <__aeabi_i2d>:
    1bb8:	e3300000 	teq	r0, #0
    1bbc:	03a01000 	moveq	r1, #0
    1bc0:	012fff1e 	bxeq	lr
    1bc4:	e92d4030 	push	{r4, r5, lr}
    1bc8:	e3a04b01 	mov	r4, #1024	; 0x400
    1bcc:	e2844032 	add	r4, r4, #50	; 0x32
    1bd0:	e2105102 	ands	r5, r0, #-2147483648	; 0x80000000
    1bd4:	42600000 	rsbmi	r0, r0, #0
    1bd8:	e3a01000 	mov	r1, #0
    1bdc:	eaffff7c 	b	19d4 <__adddf3+0x150>

00001be0 <__aeabi_f2d>:
    1be0:	e1b02080 	lsls	r2, r0, #1
    1be4:	e1a011c2 	asr	r1, r2, #3
    1be8:	e1a01061 	rrx	r1, r1
    1bec:	e1a00e02 	lsl	r0, r2, #28
    1bf0:	121234ff 	andsne	r3, r2, #-16777216	; 0xff000000
    1bf4:	133304ff 	teqne	r3, #-16777216	; 0xff000000
    1bf8:	1221130e 	eorne	r1, r1, #939524096	; 0x38000000
    1bfc:	112fff1e 	bxne	lr
    1c00:	e3320000 	teq	r2, #0
    1c04:	133304ff 	teqne	r3, #-16777216	; 0xff000000
    1c08:	012fff1e 	bxeq	lr
    1c0c:	e92d4030 	push	{r4, r5, lr}
    1c10:	e3a04d0e 	mov	r4, #896	; 0x380
    1c14:	e2015102 	and	r5, r1, #-2147483648	; 0x80000000
    1c18:	e3c11102 	bic	r1, r1, #-2147483648	; 0x80000000
    1c1c:	eaffff6c 	b	19d4 <__adddf3+0x150>

00001c20 <__aeabi_ul2d>:
    1c20:	e1902001 	orrs	r2, r0, r1
    1c24:	012fff1e 	bxeq	lr
    1c28:	e92d4030 	push	{r4, r5, lr}
    1c2c:	e3a05000 	mov	r5, #0
    1c30:	ea000006 	b	1c50 <__aeabi_l2d+0x1c>

00001c34 <__aeabi_l2d>:
    1c34:	e1902001 	orrs	r2, r0, r1
    1c38:	012fff1e 	bxeq	lr
    1c3c:	e92d4030 	push	{r4, r5, lr}
    1c40:	e2115102 	ands	r5, r1, #-2147483648	; 0x80000000
    1c44:	5a000001 	bpl	1c50 <__aeabi_l2d+0x1c>
    1c48:	e2700000 	rsbs	r0, r0, #0
    1c4c:	e2e11000 	rsc	r1, r1, #0
    1c50:	e3a04b01 	mov	r4, #1024	; 0x400
    1c54:	e2844032 	add	r4, r4, #50	; 0x32
    1c58:	e1b0cb21 	lsrs	ip, r1, #22
    1c5c:	0affff44 	beq	1974 <__adddf3+0xf0>
    1c60:	e3a02003 	mov	r2, #3
    1c64:	e1b0c1ac 	lsrs	ip, ip, #3
    1c68:	12822003 	addne	r2, r2, #3
    1c6c:	e1b0c1ac 	lsrs	ip, ip, #3
    1c70:	12822003 	addne	r2, r2, #3
    1c74:	e08221ac 	add	r2, r2, ip, lsr #3
    1c78:	e2623020 	rsb	r3, r2, #32
    1c7c:	e1a0c310 	lsl	ip, r0, r3
    1c80:	e1a00230 	lsr	r0, r0, r2
    1c84:	e1800311 	orr	r0, r0, r1, lsl r3
    1c88:	e1a01231 	lsr	r1, r1, r2
    1c8c:	e0844002 	add	r4, r4, r2
    1c90:	eaffff37 	b	1974 <__adddf3+0xf0>

00001c94 <__aeabi_dmul>:
    1c94:	e92d4070 	push	{r4, r5, r6, lr}
    1c98:	e3a0c0ff 	mov	ip, #255	; 0xff
    1c9c:	e38ccc07 	orr	ip, ip, #1792	; 0x700
    1ca0:	e01c4a21 	ands	r4, ip, r1, lsr #20
    1ca4:	101c5a23 	andsne	r5, ip, r3, lsr #20
    1ca8:	1134000c 	teqne	r4, ip
    1cac:	1135000c 	teqne	r5, ip
    1cb0:	0b000075 	bleq	1e8c <__aeabi_dmul+0x1f8>
    1cb4:	e0844005 	add	r4, r4, r5
    1cb8:	e0216003 	eor	r6, r1, r3
    1cbc:	e1c11a8c 	bic	r1, r1, ip, lsl #21
    1cc0:	e1c33a8c 	bic	r3, r3, ip, lsl #21
    1cc4:	e1905601 	orrs	r5, r0, r1, lsl #12
    1cc8:	11925603 	orrsne	r5, r2, r3, lsl #12
    1ccc:	e3811601 	orr	r1, r1, #1048576	; 0x100000
    1cd0:	e3833601 	orr	r3, r3, #1048576	; 0x100000
    1cd4:	0a00001d 	beq	1d50 <__aeabi_dmul+0xbc>
    1cd8:	e08ec290 	umull	ip, lr, r0, r2
    1cdc:	e3a05000 	mov	r5, #0
    1ce0:	e0a5e291 	umlal	lr, r5, r1, r2
    1ce4:	e2062102 	and	r2, r6, #-2147483648	; 0x80000000
    1ce8:	e0a5e390 	umlal	lr, r5, r0, r3
    1cec:	e3a06000 	mov	r6, #0
    1cf0:	e0a65391 	umlal	r5, r6, r1, r3
    1cf4:	e33c0000 	teq	ip, #0
    1cf8:	138ee001 	orrne	lr, lr, #1
    1cfc:	e24440ff 	sub	r4, r4, #255	; 0xff
    1d00:	e3560c02 	cmp	r6, #512	; 0x200
    1d04:	e2c44c03 	sbc	r4, r4, #768	; 0x300
    1d08:	2a000002 	bcs	1d18 <__aeabi_dmul+0x84>
    1d0c:	e1b0e08e 	lsls	lr, lr, #1
    1d10:	e0b55005 	adcs	r5, r5, r5
    1d14:	e0a66006 	adc	r6, r6, r6
    1d18:	e1821586 	orr	r1, r2, r6, lsl #11
    1d1c:	e1811aa5 	orr	r1, r1, r5, lsr #21
    1d20:	e1a00585 	lsl	r0, r5, #11
    1d24:	e1800aae 	orr	r0, r0, lr, lsr #21
    1d28:	e1a0e58e 	lsl	lr, lr, #11
    1d2c:	e254c0fd 	subs	ip, r4, #253	; 0xfd
    1d30:	835c0c07 	cmphi	ip, #1792	; 0x700
    1d34:	8a000011 	bhi	1d80 <__aeabi_dmul+0xec>
    1d38:	e35e0102 	cmp	lr, #-2147483648	; 0x80000000
    1d3c:	01b0e0a0 	lsrseq	lr, r0, #1
    1d40:	e2b00000 	adcs	r0, r0, #0
    1d44:	e0a11a04 	adc	r1, r1, r4, lsl #20
    1d48:	e8bd4070 	pop	{r4, r5, r6, lr}
    1d4c:	e12fff1e 	bx	lr
    1d50:	e2066102 	and	r6, r6, #-2147483648	; 0x80000000
    1d54:	e1861001 	orr	r1, r6, r1
    1d58:	e1800002 	orr	r0, r0, r2
    1d5c:	e0211003 	eor	r1, r1, r3
    1d60:	e05440ac 	subs	r4, r4, ip, lsr #1
    1d64:	c074500c 	rsbsgt	r5, r4, ip
    1d68:	c1811a04 	orrgt	r1, r1, r4, lsl #20
    1d6c:	c8bd4070 	popgt	{r4, r5, r6, lr}
    1d70:	c12fff1e 	bxgt	lr
    1d74:	e3811601 	orr	r1, r1, #1048576	; 0x100000
    1d78:	e3a0e000 	mov	lr, #0
    1d7c:	e2544001 	subs	r4, r4, #1
    1d80:	ca00005d 	bgt	1efc <__aeabi_dmul+0x268>
    1d84:	e3740036 	cmn	r4, #54	; 0x36
    1d88:	d3a00000 	movle	r0, #0
    1d8c:	d2011102 	andle	r1, r1, #-2147483648	; 0x80000000
    1d90:	d8bd4070 	pople	{r4, r5, r6, lr}
    1d94:	d12fff1e 	bxle	lr
    1d98:	e2644000 	rsb	r4, r4, #0
    1d9c:	e2544020 	subs	r4, r4, #32
    1da0:	aa00001a 	bge	1e10 <__aeabi_dmul+0x17c>
    1da4:	e294400c 	adds	r4, r4, #12
    1da8:	ca00000c 	bgt	1de0 <__aeabi_dmul+0x14c>
    1dac:	e2844014 	add	r4, r4, #20
    1db0:	e2645020 	rsb	r5, r4, #32
    1db4:	e1a03510 	lsl	r3, r0, r5
    1db8:	e1a00430 	lsr	r0, r0, r4
    1dbc:	e1800511 	orr	r0, r0, r1, lsl r5
    1dc0:	e2012102 	and	r2, r1, #-2147483648	; 0x80000000
    1dc4:	e3c11102 	bic	r1, r1, #-2147483648	; 0x80000000
    1dc8:	e0900fa3 	adds	r0, r0, r3, lsr #31
    1dcc:	e0a21431 	adc	r1, r2, r1, lsr r4
    1dd0:	e19ee083 	orrs	lr, lr, r3, lsl #1
    1dd4:	01c00fa3 	biceq	r0, r0, r3, lsr #31
    1dd8:	e8bd4070 	pop	{r4, r5, r6, lr}
    1ddc:	e12fff1e 	bx	lr
    1de0:	e264400c 	rsb	r4, r4, #12
    1de4:	e2645020 	rsb	r5, r4, #32
    1de8:	e1a03410 	lsl	r3, r0, r4
    1dec:	e1a00530 	lsr	r0, r0, r5
    1df0:	e1800411 	orr	r0, r0, r1, lsl r4
    1df4:	e2011102 	and	r1, r1, #-2147483648	; 0x80000000
    1df8:	e0900fa3 	adds	r0, r0, r3, lsr #31
    1dfc:	e2a11000 	adc	r1, r1, #0
    1e00:	e19ee083 	orrs	lr, lr, r3, lsl #1
    1e04:	01c00fa3 	biceq	r0, r0, r3, lsr #31
    1e08:	e8bd4070 	pop	{r4, r5, r6, lr}
    1e0c:	e12fff1e 	bx	lr
    1e10:	e2645020 	rsb	r5, r4, #32
    1e14:	e18ee510 	orr	lr, lr, r0, lsl r5
    1e18:	e1a03430 	lsr	r3, r0, r4
    1e1c:	e1833511 	orr	r3, r3, r1, lsl r5
    1e20:	e1a00431 	lsr	r0, r1, r4
    1e24:	e2011102 	and	r1, r1, #-2147483648	; 0x80000000
    1e28:	e1c00431 	bic	r0, r0, r1, lsr r4
    1e2c:	e0800fa3 	add	r0, r0, r3, lsr #31
    1e30:	e19ee083 	orrs	lr, lr, r3, lsl #1
    1e34:	01c00fa3 	biceq	r0, r0, r3, lsr #31
    1e38:	e8bd4070 	pop	{r4, r5, r6, lr}
    1e3c:	e12fff1e 	bx	lr
    1e40:	e3340000 	teq	r4, #0
    1e44:	1a000008 	bne	1e6c <__aeabi_dmul+0x1d8>
    1e48:	e2016102 	and	r6, r1, #-2147483648	; 0x80000000
    1e4c:	e1b00080 	lsls	r0, r0, #1
    1e50:	e0a11001 	adc	r1, r1, r1
    1e54:	e3110601 	tst	r1, #1048576	; 0x100000
    1e58:	02444001 	subeq	r4, r4, #1
    1e5c:	0afffffa 	beq	1e4c <__aeabi_dmul+0x1b8>
    1e60:	e1811006 	orr	r1, r1, r6
    1e64:	e3350000 	teq	r5, #0
    1e68:	112fff1e 	bxne	lr
    1e6c:	e2036102 	and	r6, r3, #-2147483648	; 0x80000000
    1e70:	e1b02082 	lsls	r2, r2, #1
    1e74:	e0a33003 	adc	r3, r3, r3
    1e78:	e3130601 	tst	r3, #1048576	; 0x100000
    1e7c:	02455001 	subeq	r5, r5, #1
    1e80:	0afffffa 	beq	1e70 <__aeabi_dmul+0x1dc>
    1e84:	e1833006 	orr	r3, r3, r6
    1e88:	e12fff1e 	bx	lr
    1e8c:	e134000c 	teq	r4, ip
    1e90:	e00c5a23 	and	r5, ip, r3, lsr #20
    1e94:	1135000c 	teqne	r5, ip
    1e98:	0a000007 	beq	1ebc <__aeabi_dmul+0x228>
    1e9c:	e1906081 	orrs	r6, r0, r1, lsl #1
    1ea0:	11926083 	orrsne	r6, r2, r3, lsl #1
    1ea4:	1affffe5 	bne	1e40 <__aeabi_dmul+0x1ac>
    1ea8:	e0211003 	eor	r1, r1, r3
    1eac:	e2011102 	and	r1, r1, #-2147483648	; 0x80000000
    1eb0:	e3a00000 	mov	r0, #0
    1eb4:	e8bd4070 	pop	{r4, r5, r6, lr}
    1eb8:	e12fff1e 	bx	lr
    1ebc:	e1906081 	orrs	r6, r0, r1, lsl #1
    1ec0:	01a00002 	moveq	r0, r2
    1ec4:	01a01003 	moveq	r1, r3
    1ec8:	11926083 	orrsne	r6, r2, r3, lsl #1
    1ecc:	0a000010 	beq	1f14 <__aeabi_dmul+0x280>
    1ed0:	e134000c 	teq	r4, ip
    1ed4:	1a000001 	bne	1ee0 <__aeabi_dmul+0x24c>
    1ed8:	e1906601 	orrs	r6, r0, r1, lsl #12
    1edc:	1a00000c 	bne	1f14 <__aeabi_dmul+0x280>
    1ee0:	e135000c 	teq	r5, ip
    1ee4:	1a000003 	bne	1ef8 <__aeabi_dmul+0x264>
    1ee8:	e1926603 	orrs	r6, r2, r3, lsl #12
    1eec:	11a00002 	movne	r0, r2
    1ef0:	11a01003 	movne	r1, r3
    1ef4:	1a000006 	bne	1f14 <__aeabi_dmul+0x280>
    1ef8:	e0211003 	eor	r1, r1, r3
    1efc:	e2011102 	and	r1, r1, #-2147483648	; 0x80000000
    1f00:	e381147f 	orr	r1, r1, #2130706432	; 0x7f000000
    1f04:	e381160f 	orr	r1, r1, #15728640	; 0xf00000
    1f08:	e3a00000 	mov	r0, #0
    1f0c:	e8bd4070 	pop	{r4, r5, r6, lr}
    1f10:	e12fff1e 	bx	lr
    1f14:	e381147f 	orr	r1, r1, #2130706432	; 0x7f000000
    1f18:	e381173e 	orr	r1, r1, #16252928	; 0xf80000
    1f1c:	e8bd4070 	pop	{r4, r5, r6, lr}
    1f20:	e12fff1e 	bx	lr

00001f24 <__aeabi_ddiv>:
    1f24:	e92d4070 	push	{r4, r5, r6, lr}
    1f28:	e3a0c0ff 	mov	ip, #255	; 0xff
    1f2c:	e38ccc07 	orr	ip, ip, #1792	; 0x700
    1f30:	e01c4a21 	ands	r4, ip, r1, lsr #20
    1f34:	101c5a23 	andsne	r5, ip, r3, lsr #20
    1f38:	1134000c 	teqne	r4, ip
    1f3c:	1135000c 	teqne	r5, ip
    1f40:	0b00005e 	bleq	20c0 <__aeabi_ddiv+0x19c>
    1f44:	e0444005 	sub	r4, r4, r5
    1f48:	e021e003 	eor	lr, r1, r3
    1f4c:	e1925603 	orrs	r5, r2, r3, lsl #12
    1f50:	e1a01601 	lsl	r1, r1, #12
    1f54:	0a00004c 	beq	208c <__aeabi_ddiv+0x168>
    1f58:	e1a03603 	lsl	r3, r3, #12
    1f5c:	e3a05201 	mov	r5, #268435456	; 0x10000000
    1f60:	e1853223 	orr	r3, r5, r3, lsr #4
    1f64:	e1833c22 	orr	r3, r3, r2, lsr #24
    1f68:	e1a02402 	lsl	r2, r2, #8
    1f6c:	e1855221 	orr	r5, r5, r1, lsr #4
    1f70:	e1855c20 	orr	r5, r5, r0, lsr #24
    1f74:	e1a06400 	lsl	r6, r0, #8
    1f78:	e20e1102 	and	r1, lr, #-2147483648	; 0x80000000
    1f7c:	e1550003 	cmp	r5, r3
    1f80:	01560002 	cmpeq	r6, r2
    1f84:	e2a440fd 	adc	r4, r4, #253	; 0xfd
    1f88:	e2844c03 	add	r4, r4, #768	; 0x300
    1f8c:	2a000001 	bcs	1f98 <__aeabi_ddiv+0x74>
    1f90:	e1b030a3 	lsrs	r3, r3, #1
    1f94:	e1a02062 	rrx	r2, r2
    1f98:	e0566002 	subs	r6, r6, r2
    1f9c:	e0c55003 	sbc	r5, r5, r3
    1fa0:	e1b030a3 	lsrs	r3, r3, #1
    1fa4:	e1a02062 	rrx	r2, r2
    1fa8:	e3a00601 	mov	r0, #1048576	; 0x100000
    1fac:	e3a0c702 	mov	ip, #524288	; 0x80000
    1fb0:	e056e002 	subs	lr, r6, r2
    1fb4:	e0d5e003 	sbcs	lr, r5, r3
    1fb8:	20466002 	subcs	r6, r6, r2
    1fbc:	21a0500e 	movcs	r5, lr
    1fc0:	2180000c 	orrcs	r0, r0, ip
    1fc4:	e1b030a3 	lsrs	r3, r3, #1
    1fc8:	e1a02062 	rrx	r2, r2
    1fcc:	e056e002 	subs	lr, r6, r2
    1fd0:	e0d5e003 	sbcs	lr, r5, r3
    1fd4:	20466002 	subcs	r6, r6, r2
    1fd8:	21a0500e 	movcs	r5, lr
    1fdc:	218000ac 	orrcs	r0, r0, ip, lsr #1
    1fe0:	e1b030a3 	lsrs	r3, r3, #1
    1fe4:	e1a02062 	rrx	r2, r2
    1fe8:	e056e002 	subs	lr, r6, r2
    1fec:	e0d5e003 	sbcs	lr, r5, r3
    1ff0:	20466002 	subcs	r6, r6, r2
    1ff4:	21a0500e 	movcs	r5, lr
    1ff8:	2180012c 	orrcs	r0, r0, ip, lsr #2
    1ffc:	e1b030a3 	lsrs	r3, r3, #1
    2000:	e1a02062 	rrx	r2, r2
    2004:	e056e002 	subs	lr, r6, r2
    2008:	e0d5e003 	sbcs	lr, r5, r3
    200c:	20466002 	subcs	r6, r6, r2
    2010:	21a0500e 	movcs	r5, lr
    2014:	218001ac 	orrcs	r0, r0, ip, lsr #3
    2018:	e195e006 	orrs	lr, r5, r6
    201c:	0a00000d 	beq	2058 <__aeabi_ddiv+0x134>
    2020:	e1a05205 	lsl	r5, r5, #4
    2024:	e1855e26 	orr	r5, r5, r6, lsr #28
    2028:	e1a06206 	lsl	r6, r6, #4
    202c:	e1a03183 	lsl	r3, r3, #3
    2030:	e1833ea2 	orr	r3, r3, r2, lsr #29
    2034:	e1a02182 	lsl	r2, r2, #3
    2038:	e1b0c22c 	lsrs	ip, ip, #4
    203c:	1affffdb 	bne	1fb0 <__aeabi_ddiv+0x8c>
    2040:	e3110601 	tst	r1, #1048576	; 0x100000
    2044:	1a000006 	bne	2064 <__aeabi_ddiv+0x140>
    2048:	e1811000 	orr	r1, r1, r0
    204c:	e3a00000 	mov	r0, #0
    2050:	e3a0c102 	mov	ip, #-2147483648	; 0x80000000
    2054:	eaffffd5 	b	1fb0 <__aeabi_ddiv+0x8c>
    2058:	e3110601 	tst	r1, #1048576	; 0x100000
    205c:	01811000 	orreq	r1, r1, r0
    2060:	03a00000 	moveq	r0, #0
    2064:	e254c0fd 	subs	ip, r4, #253	; 0xfd
    2068:	835c0c07 	cmphi	ip, #1792	; 0x700
    206c:	8affff43 	bhi	1d80 <__aeabi_dmul+0xec>
    2070:	e055c003 	subs	ip, r5, r3
    2074:	0056c002 	subseq	ip, r6, r2
    2078:	01b0c0a0 	lsrseq	ip, r0, #1
    207c:	e2b00000 	adcs	r0, r0, #0
    2080:	e0a11a04 	adc	r1, r1, r4, lsl #20
    2084:	e8bd4070 	pop	{r4, r5, r6, lr}
    2088:	e12fff1e 	bx	lr
    208c:	e20ee102 	and	lr, lr, #-2147483648	; 0x80000000
    2090:	e18e1621 	orr	r1, lr, r1, lsr #12
    2094:	e09440ac 	adds	r4, r4, ip, lsr #1
    2098:	c074500c 	rsbsgt	r5, r4, ip
    209c:	c1811a04 	orrgt	r1, r1, r4, lsl #20
    20a0:	c8bd4070 	popgt	{r4, r5, r6, lr}
    20a4:	c12fff1e 	bxgt	lr
    20a8:	e3811601 	orr	r1, r1, #1048576	; 0x100000
    20ac:	e3a0e000 	mov	lr, #0
    20b0:	e2544001 	subs	r4, r4, #1
    20b4:	eaffff31 	b	1d80 <__aeabi_dmul+0xec>
    20b8:	e185e006 	orr	lr, r5, r6
    20bc:	eaffff2f 	b	1d80 <__aeabi_dmul+0xec>
    20c0:	e00c5a23 	and	r5, ip, r3, lsr #20
    20c4:	e134000c 	teq	r4, ip
    20c8:	0135000c 	teqeq	r5, ip
    20cc:	0affff90 	beq	1f14 <__aeabi_dmul+0x280>
    20d0:	e134000c 	teq	r4, ip
    20d4:	1a000006 	bne	20f4 <__aeabi_ddiv+0x1d0>
    20d8:	e1904601 	orrs	r4, r0, r1, lsl #12
    20dc:	1affff8c 	bne	1f14 <__aeabi_dmul+0x280>
    20e0:	e135000c 	teq	r5, ip
    20e4:	1affff83 	bne	1ef8 <__aeabi_dmul+0x264>
    20e8:	e1a00002 	mov	r0, r2
    20ec:	e1a01003 	mov	r1, r3
    20f0:	eaffff87 	b	1f14 <__aeabi_dmul+0x280>
    20f4:	e135000c 	teq	r5, ip
    20f8:	1a000004 	bne	2110 <__aeabi_ddiv+0x1ec>
    20fc:	e1925603 	orrs	r5, r2, r3, lsl #12
    2100:	0affff68 	beq	1ea8 <__aeabi_dmul+0x214>
    2104:	e1a00002 	mov	r0, r2
    2108:	e1a01003 	mov	r1, r3
    210c:	eaffff80 	b	1f14 <__aeabi_dmul+0x280>
    2110:	e1906081 	orrs	r6, r0, r1, lsl #1
    2114:	11926083 	orrsne	r6, r2, r3, lsl #1
    2118:	1affff48 	bne	1e40 <__aeabi_dmul+0x1ac>
    211c:	e1904081 	orrs	r4, r0, r1, lsl #1
    2120:	1affff74 	bne	1ef8 <__aeabi_dmul+0x264>
    2124:	e1925083 	orrs	r5, r2, r3, lsl #1
    2128:	1affff5e 	bne	1ea8 <__aeabi_dmul+0x214>
    212c:	eaffff78 	b	1f14 <__aeabi_dmul+0x280>

00002130 <__aeabi_d2iz>:
    2130:	e1a02081 	lsl	r2, r1, #1
    2134:	e2922602 	adds	r2, r2, #2097152	; 0x200000
    2138:	2a00000c 	bcs	2170 <__aeabi_d2iz+0x40>
    213c:	5a000009 	bpl	2168 <__aeabi_d2iz+0x38>
    2140:	e3e03e3e 	mvn	r3, #992	; 0x3e0
    2144:	e0532ac2 	subs	r2, r3, r2, asr #21
    2148:	9a00000a 	bls	2178 <__aeabi_d2iz+0x48>
    214c:	e1a03581 	lsl	r3, r1, #11
    2150:	e3833102 	orr	r3, r3, #-2147483648	; 0x80000000
    2154:	e1833aa0 	orr	r3, r3, r0, lsr #21
    2158:	e3110102 	tst	r1, #-2147483648	; 0x80000000
    215c:	e1a00233 	lsr	r0, r3, r2
    2160:	12600000 	rsbne	r0, r0, #0
    2164:	e12fff1e 	bx	lr
    2168:	e3a00000 	mov	r0, #0
    216c:	e12fff1e 	bx	lr
    2170:	e1900601 	orrs	r0, r0, r1, lsl #12
    2174:	1a000002 	bne	2184 <__aeabi_d2iz+0x54>
    2178:	e2110102 	ands	r0, r1, #-2147483648	; 0x80000000
    217c:	03e00102 	mvneq	r0, #-2147483648	; 0x80000000
    2180:	e12fff1e 	bx	lr
    2184:	e3a00000 	mov	r0, #0
    2188:	e12fff1e 	bx	lr

0000218c <__aeabi_d2f>:
    218c:	e1a02081 	lsl	r2, r1, #1
    2190:	e2523207 	subs	r3, r2, #1879048192	; 0x70000000
    2194:	2253c602 	subscs	ip, r3, #2097152	; 0x200000
    2198:	227cc57f 	rsbscs	ip, ip, #532676608	; 0x1fc00000
    219c:	9a000006 	bls	21bc <__aeabi_d2f+0x30>
    21a0:	e201c102 	and	ip, r1, #-2147483648	; 0x80000000
    21a4:	e1a02180 	lsl	r2, r0, #3
    21a8:	e18c0ea0 	orr	r0, ip, r0, lsr #29
    21ac:	e3520102 	cmp	r2, #-2147483648	; 0x80000000
    21b0:	e0a00103 	adc	r0, r0, r3, lsl #2
    21b4:	03c00001 	biceq	r0, r0, #1
    21b8:	e12fff1e 	bx	lr
    21bc:	e3110101 	tst	r1, #1073741824	; 0x40000000
    21c0:	1a00000f 	bne	2204 <__aeabi_d2f+0x78>
    21c4:	e293262e 	adds	r2, r3, #48234496	; 0x2e00000
    21c8:	b2010102 	andlt	r0, r1, #-2147483648	; 0x80000000
    21cc:	b12fff1e 	bxlt	lr
    21d0:	e3811601 	orr	r1, r1, #1048576	; 0x100000
    21d4:	e1a02aa2 	lsr	r2, r2, #21
    21d8:	e2622018 	rsb	r2, r2, #24
    21dc:	e262c020 	rsb	ip, r2, #32
    21e0:	e1b03c10 	lsls	r3, r0, ip
    21e4:	e1a00230 	lsr	r0, r0, r2
    21e8:	13800001 	orrne	r0, r0, #1
    21ec:	e1a03581 	lsl	r3, r1, #11
    21f0:	e1a035a3 	lsr	r3, r3, #11
    21f4:	e1800c13 	orr	r0, r0, r3, lsl ip
    21f8:	e1a03233 	lsr	r3, r3, r2
    21fc:	e1a03083 	lsl	r3, r3, #1
    2200:	eaffffe6 	b	21a0 <__aeabi_d2f+0x14>
    2204:	e1f03ac2 	mvns	r3, r2, asr #21
    2208:	1a000003 	bne	221c <__aeabi_d2f+0x90>
    220c:	e1903601 	orrs	r3, r0, r1, lsl #12
    2210:	13a0047f 	movne	r0, #2130706432	; 0x7f000000
    2214:	13800503 	orrne	r0, r0, #12582912	; 0xc00000
    2218:	112fff1e 	bxne	lr
    221c:	e2010102 	and	r0, r1, #-2147483648	; 0x80000000
    2220:	e380047f 	orr	r0, r0, #2130706432	; 0x7f000000
    2224:	e3800502 	orr	r0, r0, #8388608	; 0x800000
    2228:	e12fff1e 	bx	lr

0000222c <__aeabi_frsub>:
    222c:	e2200102 	eor	r0, r0, #-2147483648	; 0x80000000
    2230:	ea000000 	b	2238 <__addsf3>

00002234 <__aeabi_fsub>:
    2234:	e2211102 	eor	r1, r1, #-2147483648	; 0x80000000

00002238 <__addsf3>:
    2238:	e1b02080 	lsls	r2, r0, #1
    223c:	11b03081 	lslsne	r3, r1, #1
    2240:	11320003 	teqne	r2, r3
    2244:	11f0cc42 	mvnsne	ip, r2, asr #24
    2248:	11f0cc43 	mvnsne	ip, r3, asr #24
    224c:	0a000047 	beq	2370 <__addsf3+0x138>
    2250:	e1a02c22 	lsr	r2, r2, #24
    2254:	e0723c23 	rsbs	r3, r2, r3, lsr #24
    2258:	c0822003 	addgt	r2, r2, r3
    225c:	c0201001 	eorgt	r1, r0, r1
    2260:	c0210000 	eorgt	r0, r1, r0
    2264:	c0201001 	eorgt	r1, r0, r1
    2268:	b2633000 	rsblt	r3, r3, #0
    226c:	e3530019 	cmp	r3, #25
    2270:	812fff1e 	bxhi	lr
    2274:	e3100102 	tst	r0, #-2147483648	; 0x80000000
    2278:	e3800502 	orr	r0, r0, #8388608	; 0x800000
    227c:	e3c004ff 	bic	r0, r0, #-16777216	; 0xff000000
    2280:	12600000 	rsbne	r0, r0, #0
    2284:	e3110102 	tst	r1, #-2147483648	; 0x80000000
    2288:	e3811502 	orr	r1, r1, #8388608	; 0x800000
    228c:	e3c114ff 	bic	r1, r1, #-16777216	; 0xff000000
    2290:	12611000 	rsbne	r1, r1, #0
    2294:	e1320003 	teq	r2, r3
    2298:	0a00002e 	beq	2358 <__addsf3+0x120>
    229c:	e2422001 	sub	r2, r2, #1
    22a0:	e0900351 	adds	r0, r0, r1, asr r3
    22a4:	e2633020 	rsb	r3, r3, #32
    22a8:	e1a01311 	lsl	r1, r1, r3
    22ac:	e2003102 	and	r3, r0, #-2147483648	; 0x80000000
    22b0:	5a000001 	bpl	22bc <__addsf3+0x84>
    22b4:	e2711000 	rsbs	r1, r1, #0
    22b8:	e2e00000 	rsc	r0, r0, #0
    22bc:	e3500502 	cmp	r0, #8388608	; 0x800000
    22c0:	3a00000b 	bcc	22f4 <__addsf3+0xbc>
    22c4:	e3500401 	cmp	r0, #16777216	; 0x1000000
    22c8:	3a000004 	bcc	22e0 <__addsf3+0xa8>
    22cc:	e1b000a0 	lsrs	r0, r0, #1
    22d0:	e1a01061 	rrx	r1, r1
    22d4:	e2822001 	add	r2, r2, #1
    22d8:	e35200fe 	cmp	r2, #254	; 0xfe
    22dc:	2a000038 	bcs	23c4 <__addsf3+0x18c>
    22e0:	e3510102 	cmp	r1, #-2147483648	; 0x80000000
    22e4:	e0a00b82 	adc	r0, r0, r2, lsl #23
    22e8:	03c00001 	biceq	r0, r0, #1
    22ec:	e1800003 	orr	r0, r0, r3
    22f0:	e12fff1e 	bx	lr
    22f4:	e1b01081 	lsls	r1, r1, #1
    22f8:	e0a00000 	adc	r0, r0, r0
    22fc:	e3100502 	tst	r0, #8388608	; 0x800000
    2300:	e2422001 	sub	r2, r2, #1
    2304:	1afffff5 	bne	22e0 <__addsf3+0xa8>
    2308:	e1b0c620 	lsrs	ip, r0, #12
    230c:	01a00600 	lsleq	r0, r0, #12
    2310:	0242200c 	subeq	r2, r2, #12
    2314:	e31008ff 	tst	r0, #16711680	; 0xff0000
    2318:	01a00400 	lsleq	r0, r0, #8
    231c:	02422008 	subeq	r2, r2, #8
    2320:	e310060f 	tst	r0, #15728640	; 0xf00000
    2324:	01a00200 	lsleq	r0, r0, #4
    2328:	02422004 	subeq	r2, r2, #4
    232c:	e3100503 	tst	r0, #12582912	; 0xc00000
    2330:	01a00100 	lsleq	r0, r0, #2
    2334:	02422002 	subeq	r2, r2, #2
    2338:	e3500502 	cmp	r0, #8388608	; 0x800000
    233c:	31a00080 	lslcc	r0, r0, #1
    2340:	e2d22000 	sbcs	r2, r2, #0
    2344:	a0800b82 	addge	r0, r0, r2, lsl #23
    2348:	b2622000 	rsblt	r2, r2, #0
    234c:	a1800003 	orrge	r0, r0, r3
    2350:	b1830230 	orrlt	r0, r3, r0, lsr r2
    2354:	e12fff1e 	bx	lr
    2358:	e3320000 	teq	r2, #0
    235c:	e2211502 	eor	r1, r1, #8388608	; 0x800000
    2360:	02200502 	eoreq	r0, r0, #8388608	; 0x800000
    2364:	02822001 	addeq	r2, r2, #1
    2368:	12433001 	subne	r3, r3, #1
    236c:	eaffffca 	b	229c <__addsf3+0x64>
    2370:	e1a03081 	lsl	r3, r1, #1
    2374:	e1f0cc42 	mvns	ip, r2, asr #24
    2378:	11f0cc43 	mvnsne	ip, r3, asr #24
    237c:	0a000013 	beq	23d0 <__addsf3+0x198>
    2380:	e1320003 	teq	r2, r3
    2384:	0a000002 	beq	2394 <__addsf3+0x15c>
    2388:	e3320000 	teq	r2, #0
    238c:	01a00001 	moveq	r0, r1
    2390:	e12fff1e 	bx	lr
    2394:	e1300001 	teq	r0, r1
    2398:	13a00000 	movne	r0, #0
    239c:	112fff1e 	bxne	lr
    23a0:	e31204ff 	tst	r2, #-16777216	; 0xff000000
    23a4:	1a000002 	bne	23b4 <__addsf3+0x17c>
    23a8:	e1b00080 	lsls	r0, r0, #1
    23ac:	23800102 	orrcs	r0, r0, #-2147483648	; 0x80000000
    23b0:	e12fff1e 	bx	lr
    23b4:	e2922402 	adds	r2, r2, #33554432	; 0x2000000
    23b8:	32800502 	addcc	r0, r0, #8388608	; 0x800000
    23bc:	312fff1e 	bxcc	lr
    23c0:	e2003102 	and	r3, r0, #-2147483648	; 0x80000000
    23c4:	e383047f 	orr	r0, r3, #2130706432	; 0x7f000000
    23c8:	e3800502 	orr	r0, r0, #8388608	; 0x800000
    23cc:	e12fff1e 	bx	lr
    23d0:	e1f02c42 	mvns	r2, r2, asr #24
    23d4:	11a00001 	movne	r0, r1
    23d8:	01f03c43 	mvnseq	r3, r3, asr #24
    23dc:	11a01000 	movne	r1, r0
    23e0:	e1b02480 	lsls	r2, r0, #9
    23e4:	01b03481 	lslseq	r3, r1, #9
    23e8:	01300001 	teqeq	r0, r1
    23ec:	13800501 	orrne	r0, r0, #4194304	; 0x400000
    23f0:	e12fff1e 	bx	lr

000023f4 <__aeabi_ui2f>:
    23f4:	e3a03000 	mov	r3, #0
    23f8:	ea000001 	b	2404 <__aeabi_i2f+0x8>

000023fc <__aeabi_i2f>:
    23fc:	e2103102 	ands	r3, r0, #-2147483648	; 0x80000000
    2400:	42600000 	rsbmi	r0, r0, #0
    2404:	e1b0c000 	movs	ip, r0
    2408:	012fff1e 	bxeq	lr
    240c:	e383344b 	orr	r3, r3, #1258291200	; 0x4b000000
    2410:	e1a01000 	mov	r1, r0
    2414:	e3a00000 	mov	r0, #0
    2418:	ea00000f 	b	245c <__aeabi_l2f+0x30>

0000241c <__aeabi_ul2f>:
    241c:	e1902001 	orrs	r2, r0, r1
    2420:	012fff1e 	bxeq	lr
    2424:	e3a03000 	mov	r3, #0
    2428:	ea000005 	b	2444 <__aeabi_l2f+0x18>

0000242c <__aeabi_l2f>:
    242c:	e1902001 	orrs	r2, r0, r1
    2430:	012fff1e 	bxeq	lr
    2434:	e2113102 	ands	r3, r1, #-2147483648	; 0x80000000
    2438:	5a000001 	bpl	2444 <__aeabi_l2f+0x18>
    243c:	e2700000 	rsbs	r0, r0, #0
    2440:	e2e11000 	rsc	r1, r1, #0
    2444:	e1b0c001 	movs	ip, r1
    2448:	01a0c000 	moveq	ip, r0
    244c:	01a01000 	moveq	r1, r0
    2450:	03a00000 	moveq	r0, #0
    2454:	e383345b 	orr	r3, r3, #1526726656	; 0x5b000000
    2458:	02433201 	subeq	r3, r3, #268435456	; 0x10000000
    245c:	e2433502 	sub	r3, r3, #8388608	; 0x800000
    2460:	e3a02017 	mov	r2, #23
    2464:	e35c0801 	cmp	ip, #65536	; 0x10000
    2468:	21a0c82c 	lsrcs	ip, ip, #16
    246c:	22422010 	subcs	r2, r2, #16
    2470:	e35c0c01 	cmp	ip, #256	; 0x100
    2474:	21a0c42c 	lsrcs	ip, ip, #8
    2478:	22422008 	subcs	r2, r2, #8
    247c:	e35c0010 	cmp	ip, #16
    2480:	21a0c22c 	lsrcs	ip, ip, #4
    2484:	22422004 	subcs	r2, r2, #4
    2488:	e35c0004 	cmp	ip, #4
    248c:	22422002 	subcs	r2, r2, #2
    2490:	304220ac 	subcc	r2, r2, ip, lsr #1
    2494:	e05221ac 	subs	r2, r2, ip, lsr #3
    2498:	e0433b82 	sub	r3, r3, r2, lsl #23
    249c:	ba000006 	blt	24bc <__aeabi_l2f+0x90>
    24a0:	e0833211 	add	r3, r3, r1, lsl r2
    24a4:	e1a0c210 	lsl	ip, r0, r2
    24a8:	e2622020 	rsb	r2, r2, #32
    24ac:	e35c0102 	cmp	ip, #-2147483648	; 0x80000000
    24b0:	e0a30230 	adc	r0, r3, r0, lsr r2
    24b4:	03c00001 	biceq	r0, r0, #1
    24b8:	e12fff1e 	bx	lr
    24bc:	e2822020 	add	r2, r2, #32
    24c0:	e1a0c211 	lsl	ip, r1, r2
    24c4:	e2622020 	rsb	r2, r2, #32
    24c8:	e190008c 	orrs	r0, r0, ip, lsl #1
    24cc:	e0a30231 	adc	r0, r3, r1, lsr r2
    24d0:	01c00fac 	biceq	r0, r0, ip, lsr #31
    24d4:	e12fff1e 	bx	lr

000024d8 <__aeabi_fmul>:
    24d8:	e3a0c0ff 	mov	ip, #255	; 0xff
    24dc:	e01c2ba0 	ands	r2, ip, r0, lsr #23
    24e0:	101c3ba1 	andsne	r3, ip, r1, lsr #23
    24e4:	1132000c 	teqne	r2, ip
    24e8:	1133000c 	teqne	r3, ip
    24ec:	0a00003e 	beq	25ec <__aeabi_fmul+0x114>
    24f0:	e0822003 	add	r2, r2, r3
    24f4:	e020c001 	eor	ip, r0, r1
    24f8:	e1b00480 	lsls	r0, r0, #9
    24fc:	11b01481 	lslsne	r1, r1, #9
    2500:	0a000010 	beq	2548 <__aeabi_fmul+0x70>
    2504:	e3a03302 	mov	r3, #134217728	; 0x8000000
    2508:	e18302a0 	orr	r0, r3, r0, lsr #5
    250c:	e18312a1 	orr	r1, r3, r1, lsr #5
    2510:	e0813190 	umull	r3, r1, r0, r1
    2514:	e20c0102 	and	r0, ip, #-2147483648	; 0x80000000
    2518:	e3510502 	cmp	r1, #8388608	; 0x800000
    251c:	31a01081 	lslcc	r1, r1, #1
    2520:	31811fa3 	orrcc	r1, r1, r3, lsr #31
    2524:	31a03083 	lslcc	r3, r3, #1
    2528:	e1800001 	orr	r0, r0, r1
    252c:	e2c2207f 	sbc	r2, r2, #127	; 0x7f
    2530:	e35200fd 	cmp	r2, #253	; 0xfd
    2534:	8a00000f 	bhi	2578 <__aeabi_fmul+0xa0>
    2538:	e3530102 	cmp	r3, #-2147483648	; 0x80000000
    253c:	e0a00b82 	adc	r0, r0, r2, lsl #23
    2540:	03c00001 	biceq	r0, r0, #1
    2544:	e12fff1e 	bx	lr
    2548:	e3300000 	teq	r0, #0
    254c:	e20cc102 	and	ip, ip, #-2147483648	; 0x80000000
    2550:	01a01481 	lsleq	r1, r1, #9
    2554:	e18c04a0 	orr	r0, ip, r0, lsr #9
    2558:	e18004a1 	orr	r0, r0, r1, lsr #9
    255c:	e252207f 	subs	r2, r2, #127	; 0x7f
    2560:	c27230ff 	rsbsgt	r3, r2, #255	; 0xff
    2564:	c1800b82 	orrgt	r0, r0, r2, lsl #23
    2568:	c12fff1e 	bxgt	lr
    256c:	e3800502 	orr	r0, r0, #8388608	; 0x800000
    2570:	e3a03000 	mov	r3, #0
    2574:	e2522001 	subs	r2, r2, #1
    2578:	ca000035 	bgt	2654 <__aeabi_fmul+0x17c>
    257c:	e3720019 	cmn	r2, #25
    2580:	d2000102 	andle	r0, r0, #-2147483648	; 0x80000000
    2584:	d12fff1e 	bxle	lr
    2588:	e2622000 	rsb	r2, r2, #0
    258c:	e1b01080 	lsls	r1, r0, #1
    2590:	e1a01231 	lsr	r1, r1, r2
    2594:	e2622020 	rsb	r2, r2, #32
    2598:	e1a0c210 	lsl	ip, r0, r2
    259c:	e1b00061 	rrxs	r0, r1
    25a0:	e2a00000 	adc	r0, r0, #0
    25a4:	e193308c 	orrs	r3, r3, ip, lsl #1
    25a8:	01c00fac 	biceq	r0, r0, ip, lsr #31
    25ac:	e12fff1e 	bx	lr
    25b0:	e3320000 	teq	r2, #0
    25b4:	e200c102 	and	ip, r0, #-2147483648	; 0x80000000
    25b8:	01a00080 	lsleq	r0, r0, #1
    25bc:	03100502 	tsteq	r0, #8388608	; 0x800000
    25c0:	02422001 	subeq	r2, r2, #1
    25c4:	0afffffb 	beq	25b8 <__aeabi_fmul+0xe0>
    25c8:	e180000c 	orr	r0, r0, ip
    25cc:	e3330000 	teq	r3, #0
    25d0:	e201c102 	and	ip, r1, #-2147483648	; 0x80000000
    25d4:	01a01081 	lsleq	r1, r1, #1
    25d8:	03110502 	tsteq	r1, #8388608	; 0x800000
    25dc:	02433001 	subeq	r3, r3, #1
    25e0:	0afffffb 	beq	25d4 <__aeabi_fmul+0xfc>
    25e4:	e181100c 	orr	r1, r1, ip
    25e8:	eaffffc0 	b	24f0 <__aeabi_fmul+0x18>
    25ec:	e00c3ba1 	and	r3, ip, r1, lsr #23
    25f0:	e132000c 	teq	r2, ip
    25f4:	1133000c 	teqne	r3, ip
    25f8:	0a000005 	beq	2614 <__aeabi_fmul+0x13c>
    25fc:	e3d0c102 	bics	ip, r0, #-2147483648	; 0x80000000
    2600:	13d1c102 	bicsne	ip, r1, #-2147483648	; 0x80000000
    2604:	1affffe9 	bne	25b0 <__aeabi_fmul+0xd8>
    2608:	e0200001 	eor	r0, r0, r1
    260c:	e2000102 	and	r0, r0, #-2147483648	; 0x80000000
    2610:	e12fff1e 	bx	lr
    2614:	e3300000 	teq	r0, #0
    2618:	13300102 	teqne	r0, #-2147483648	; 0x80000000
    261c:	01a00001 	moveq	r0, r1
    2620:	13310000 	teqne	r1, #0
    2624:	13310102 	teqne	r1, #-2147483648	; 0x80000000
    2628:	0a00000d 	beq	2664 <__aeabi_fmul+0x18c>
    262c:	e132000c 	teq	r2, ip
    2630:	1a000001 	bne	263c <__aeabi_fmul+0x164>
    2634:	e1b02480 	lsls	r2, r0, #9
    2638:	1a000009 	bne	2664 <__aeabi_fmul+0x18c>
    263c:	e133000c 	teq	r3, ip
    2640:	1a000002 	bne	2650 <__aeabi_fmul+0x178>
    2644:	e1b03481 	lsls	r3, r1, #9
    2648:	11a00001 	movne	r0, r1
    264c:	1a000004 	bne	2664 <__aeabi_fmul+0x18c>
    2650:	e0200001 	eor	r0, r0, r1
    2654:	e2000102 	and	r0, r0, #-2147483648	; 0x80000000
    2658:	e380047f 	orr	r0, r0, #2130706432	; 0x7f000000
    265c:	e3800502 	orr	r0, r0, #8388608	; 0x800000
    2660:	e12fff1e 	bx	lr
    2664:	e380047f 	orr	r0, r0, #2130706432	; 0x7f000000
    2668:	e3800503 	orr	r0, r0, #12582912	; 0xc00000
    266c:	e12fff1e 	bx	lr

00002670 <__aeabi_fdiv>:
    2670:	e3a0c0ff 	mov	ip, #255	; 0xff
    2674:	e01c2ba0 	ands	r2, ip, r0, lsr #23
    2678:	101c3ba1 	andsne	r3, ip, r1, lsr #23
    267c:	1132000c 	teqne	r2, ip
    2680:	1133000c 	teqne	r3, ip
    2684:	0a00003a 	beq	2774 <__aeabi_fdiv+0x104>
    2688:	e0422003 	sub	r2, r2, r3
    268c:	e020c001 	eor	ip, r0, r1
    2690:	e1b01481 	lsls	r1, r1, #9
    2694:	e1a00480 	lsl	r0, r0, #9
    2698:	0a00001c 	beq	2710 <__aeabi_fdiv+0xa0>
    269c:	e3a03201 	mov	r3, #268435456	; 0x10000000
    26a0:	e1831221 	orr	r1, r3, r1, lsr #4
    26a4:	e1833220 	orr	r3, r3, r0, lsr #4
    26a8:	e20c0102 	and	r0, ip, #-2147483648	; 0x80000000
    26ac:	e1530001 	cmp	r3, r1
    26b0:	31a03083 	lslcc	r3, r3, #1
    26b4:	e2a2207d 	adc	r2, r2, #125	; 0x7d
    26b8:	e3a0c502 	mov	ip, #8388608	; 0x800000
    26bc:	e1530001 	cmp	r3, r1
    26c0:	20433001 	subcs	r3, r3, r1
    26c4:	2180000c 	orrcs	r0, r0, ip
    26c8:	e15300a1 	cmp	r3, r1, lsr #1
    26cc:	204330a1 	subcs	r3, r3, r1, lsr #1
    26d0:	218000ac 	orrcs	r0, r0, ip, lsr #1
    26d4:	e1530121 	cmp	r3, r1, lsr #2
    26d8:	20433121 	subcs	r3, r3, r1, lsr #2
    26dc:	2180012c 	orrcs	r0, r0, ip, lsr #2
    26e0:	e15301a1 	cmp	r3, r1, lsr #3
    26e4:	204331a1 	subcs	r3, r3, r1, lsr #3
    26e8:	218001ac 	orrcs	r0, r0, ip, lsr #3
    26ec:	e1b03203 	lsls	r3, r3, #4
    26f0:	11b0c22c 	lsrsne	ip, ip, #4
    26f4:	1afffff0 	bne	26bc <__aeabi_fdiv+0x4c>
    26f8:	e35200fd 	cmp	r2, #253	; 0xfd
    26fc:	8affff9d 	bhi	2578 <__aeabi_fmul+0xa0>
    2700:	e1530001 	cmp	r3, r1
    2704:	e0a00b82 	adc	r0, r0, r2, lsl #23
    2708:	03c00001 	biceq	r0, r0, #1
    270c:	e12fff1e 	bx	lr
    2710:	e20cc102 	and	ip, ip, #-2147483648	; 0x80000000
    2714:	e18c04a0 	orr	r0, ip, r0, lsr #9
    2718:	e292207f 	adds	r2, r2, #127	; 0x7f
    271c:	c27230ff 	rsbsgt	r3, r2, #255	; 0xff
    2720:	c1800b82 	orrgt	r0, r0, r2, lsl #23
    2724:	c12fff1e 	bxgt	lr
    2728:	e3800502 	orr	r0, r0, #8388608	; 0x800000
    272c:	e3a03000 	mov	r3, #0
    2730:	e2522001 	subs	r2, r2, #1
    2734:	eaffff8f 	b	2578 <__aeabi_fmul+0xa0>
    2738:	e3320000 	teq	r2, #0
    273c:	e200c102 	and	ip, r0, #-2147483648	; 0x80000000
    2740:	01a00080 	lsleq	r0, r0, #1
    2744:	03100502 	tsteq	r0, #8388608	; 0x800000
    2748:	02422001 	subeq	r2, r2, #1
    274c:	0afffffb 	beq	2740 <__aeabi_fdiv+0xd0>
    2750:	e180000c 	orr	r0, r0, ip
    2754:	e3330000 	teq	r3, #0
    2758:	e201c102 	and	ip, r1, #-2147483648	; 0x80000000
    275c:	01a01081 	lsleq	r1, r1, #1
    2760:	03110502 	tsteq	r1, #8388608	; 0x800000
    2764:	02433001 	subeq	r3, r3, #1
    2768:	0afffffb 	beq	275c <__aeabi_fdiv+0xec>
    276c:	e181100c 	orr	r1, r1, ip
    2770:	eaffffc4 	b	2688 <__aeabi_fdiv+0x18>
    2774:	e00c3ba1 	and	r3, ip, r1, lsr #23
    2778:	e132000c 	teq	r2, ip
    277c:	1a000005 	bne	2798 <__aeabi_fdiv+0x128>
    2780:	e1b02480 	lsls	r2, r0, #9
    2784:	1affffb6 	bne	2664 <__aeabi_fmul+0x18c>
    2788:	e133000c 	teq	r3, ip
    278c:	1affffaf 	bne	2650 <__aeabi_fmul+0x178>
    2790:	e1a00001 	mov	r0, r1
    2794:	eaffffb2 	b	2664 <__aeabi_fmul+0x18c>
    2798:	e133000c 	teq	r3, ip
    279c:	1a000003 	bne	27b0 <__aeabi_fdiv+0x140>
    27a0:	e1b03481 	lsls	r3, r1, #9
    27a4:	0affff97 	beq	2608 <__aeabi_fmul+0x130>
    27a8:	e1a00001 	mov	r0, r1
    27ac:	eaffffac 	b	2664 <__aeabi_fmul+0x18c>
    27b0:	e3d0c102 	bics	ip, r0, #-2147483648	; 0x80000000
    27b4:	13d1c102 	bicsne	ip, r1, #-2147483648	; 0x80000000
    27b8:	1affffde 	bne	2738 <__aeabi_fdiv+0xc8>
    27bc:	e3d02102 	bics	r2, r0, #-2147483648	; 0x80000000
    27c0:	1affffa2 	bne	2650 <__aeabi_fmul+0x178>
    27c4:	e3d13102 	bics	r3, r1, #-2147483648	; 0x80000000
    27c8:	1affff8e 	bne	2608 <__aeabi_fmul+0x130>
    27cc:	eaffffa4 	b	2664 <__aeabi_fmul+0x18c>

000027d0 <__aeabi_f2iz>:
    27d0:	e1a02080 	lsl	r2, r0, #1
    27d4:	e352047f 	cmp	r2, #2130706432	; 0x7f000000
    27d8:	3a000008 	bcc	2800 <__aeabi_f2iz+0x30>
    27dc:	e3a0309e 	mov	r3, #158	; 0x9e
    27e0:	e0532c22 	subs	r2, r3, r2, lsr #24
    27e4:	9a000007 	bls	2808 <__aeabi_f2iz+0x38>
    27e8:	e1a03400 	lsl	r3, r0, #8
    27ec:	e3833102 	orr	r3, r3, #-2147483648	; 0x80000000
    27f0:	e3100102 	tst	r0, #-2147483648	; 0x80000000
    27f4:	e1a00233 	lsr	r0, r3, r2
    27f8:	12600000 	rsbne	r0, r0, #0
    27fc:	e12fff1e 	bx	lr
    2800:	e3a00000 	mov	r0, #0
    2804:	e12fff1e 	bx	lr
    2808:	e3720061 	cmn	r2, #97	; 0x61
    280c:	1a000001 	bne	2818 <__aeabi_f2iz+0x48>
    2810:	e1b02480 	lsls	r2, r0, #9
    2814:	1a000002 	bne	2824 <__aeabi_f2iz+0x54>
    2818:	e2100102 	ands	r0, r0, #-2147483648	; 0x80000000
    281c:	03e00102 	mvneq	r0, #-2147483648	; 0x80000000
    2820:	e12fff1e 	bx	lr
    2824:	e3a00000 	mov	r0, #0
    2828:	e12fff1e 	bx	lr
    282c:	00000000 	andeq	r0, r0, r0

00002830 <____aeabi_fmul_from_thumb>:
    2830:	4778      	bx	pc
    2832:	46c0      	nop			; (mov r8, r8)
    2834:	eaffff27 	b	24d8 <__aeabi_fmul>

00002838 <____aeabi_dadd_from_thumb>:
    2838:	4778      	bx	pc
    283a:	46c0      	nop			; (mov r8, r8)
    283c:	eafffc10 	b	1884 <__adddf3>

00002840 <____aeabi_ddiv_from_thumb>:
    2840:	4778      	bx	pc
    2842:	46c0      	nop			; (mov r8, r8)
    2844:	eafffdb6 	b	1f24 <__aeabi_ddiv>

00002848 <____aeabi_idiv0_from_arm>:
    2848:	e59fc000 	ldr	ip, [pc]	; 2850 <____aeabi_idiv0_from_arm+0x8>
    284c:	e12fff1c 	bx	ip
    2850:	00001875 	.word	0x00001875

00002854 <____aeabi_dmul_from_thumb>:
    2854:	4778      	bx	pc
    2856:	46c0      	nop			; (mov r8, r8)
    2858:	eafffd0d 	b	1c94 <__aeabi_dmul>

0000285c <____aeabi_d2f_from_thumb>:
    285c:	4778      	bx	pc
    285e:	46c0      	nop			; (mov r8, r8)
    2860:	eafffe49 	b	218c <__aeabi_d2f>

00002864 <____aeabi_d2iz_from_thumb>:
    2864:	4778      	bx	pc
    2866:	46c0      	nop			; (mov r8, r8)
    2868:	eafffe30 	b	2130 <__aeabi_d2iz>

0000286c <____aeabi_uidivmod_from_thumb>:
    286c:	4778      	bx	pc
    286e:	46c0      	nop			; (mov r8, r8)
    2870:	eafffbf7 	b	1854 <__aeabi_uidivmod>

00002874 <____aeabi_i2f_from_thumb>:
    2874:	4778      	bx	pc
    2876:	46c0      	nop			; (mov r8, r8)
    2878:	eafffedf 	b	23fc <__aeabi_i2f>

0000287c <____aeabi_f2iz_from_thumb>:
    287c:	4778      	bx	pc
    287e:	46c0      	nop			; (mov r8, r8)
    2880:	eaffffd2 	b	27d0 <__aeabi_f2iz>

00002884 <____aeabi_fsub_from_thumb>:
    2884:	4778      	bx	pc
    2886:	46c0      	nop			; (mov r8, r8)
    2888:	eafffe69 	b	2234 <__aeabi_fsub>

0000288c <____aeabi_i2d_from_thumb>:
    288c:	4778      	bx	pc
    288e:	46c0      	nop			; (mov r8, r8)
    2890:	eafffcc8 	b	1bb8 <__aeabi_i2d>

00002894 <____aeabi_uidiv_from_thumb>:
    2894:	4778      	bx	pc
    2896:	46c0      	nop			; (mov r8, r8)
    2898:	eafffbae 	b	1758 <__aeabi_uidiv>
    289c:	00000000 	andeq	r0, r0, r0

000028a0 <help_msg>:
    28a0:	7a616c50 7020616d 65626f72 6e6f6320     Plazma probe con
    28b0:	6c6f7274 0a72656c 61735520 0a3a6567     troller. Usage:.
    28c0:	20202020 72617473 202d2074 72617473         start - star
    28d0:	656d2074 72757361 6e656d65 200a7374     t measurements. 
    28e0:	73202020 20706f74 6966202d 6873696e        stop - finish
    28f0:	61656d20 65727573 746e656d 20200a73      measurements.  
    2900:	65732020 763c2074 61746c6f 203e6567       set <voltage> 
    2910:	7270202d 2065626f 746c6f76 20656761     - probe voltage 
    2920:	75746573 20200a70 616e2020 65766974     setup.    native
    2930:	6e202d20 662d6e6f 616d726f 20646574      - non-formated 
    2940:	7074756f 200a7475 61202020 69696373     output.    ascii
    2950:	6f202d20 75707475 6e692074 63736120      - output in asc
    2960:	70206969 65736572 7461746e 0a6e6f69     ii presentation.
    2970:	504c0a00 6e692043 61697469 657a696c     ..LPC initialize
    2980:	73000a64 74726174 74530a00 65747261     d..start..Starte
    2990:	73000a64 00706f74 6f74530a 64657070     d..stop..Stopped
    29a0:	6573000a 4f0a0074 68000a4b 00706c65     ..set..OK..help.
    29b0:	6974616e 61006576 69696373 30002e00     native.ascii...0
    29c0:	560a0a00 61746c6f 202c6567 3a202056     ...Voltage, V  :
    29d0:	430a0020 65727275 202c746e 3a416b6d      ..Current, mkA:
    29e0:	00000020 33323130 37363534 62613938      ...0123456789ab
    29f0:	66656463 6a696867 6e6d6c6b 7271706f     cdefghijklmnopqr
    2a00:	76757473 7a797877 00000000              stuvwxyz....

00002a0c <_ctype_>:
    2a0c:	20202000 20202020 28282020 20282828     .         ((((( 
    2a1c:	20202020 20202020 20202020 20202020                     
    2a2c:	10108820 10101010 10101010 10101010      ...............
    2a3c:	04040410 04040404 10040404 10101010     ................
    2a4c:	41411010 41414141 01010101 01010101     ..AAAAAA........
    2a5c:	01010101 01010101 01010101 10101010     ................
    2a6c:	42421010 42424242 02020202 02020202     ..BBBBBB........
    2a7c:	02020202 02020202 02020202 10101010     ................
    2a8c:	00000020 00000000 00000000 00000000      ...............
	...
    2b10:	00000043                                C...
